
test2.out:     file format elf64-littleaarch64


Disassembly of section .init:

0000000000400280 <_init>:
  400280:	a9bf7bfd 	stp	x29, x30, [sp, #-16]!
  400284:	910003fd 	mov	x29, sp
  400288:	940000cb 	bl	4005b4 <call_weak_fn>
  40028c:	a8c17bfd 	ldp	x29, x30, [sp], #16
  400290:	d65f03c0 	ret

Disassembly of section .plt:

00000000004002a0 <.plt>:
  4002a0:	b0000450 	adrp	x16, 489000 <_GLOBAL_OFFSET_TABLE_+0xb8>
  4002a4:	f9400211 	ldr	x17, [x16]
  4002a8:	91000210 	add	x16, x16, #0x0
  4002ac:	d61f0220 	br	x17
  4002b0:	b0000450 	adrp	x16, 489000 <_GLOBAL_OFFSET_TABLE_+0xb8>
  4002b4:	f9400611 	ldr	x17, [x16, #8]
  4002b8:	91002210 	add	x16, x16, #0x8
  4002bc:	d61f0220 	br	x17
  4002c0:	b0000450 	adrp	x16, 489000 <_GLOBAL_OFFSET_TABLE_+0xb8>
  4002c4:	f9400a11 	ldr	x17, [x16, #16]
  4002c8:	91004210 	add	x16, x16, #0x10
  4002cc:	d61f0220 	br	x17
  4002d0:	b0000450 	adrp	x16, 489000 <_GLOBAL_OFFSET_TABLE_+0xb8>
  4002d4:	f9400e11 	ldr	x17, [x16, #24]
  4002d8:	91006210 	add	x16, x16, #0x18
  4002dc:	d61f0220 	br	x17
  4002e0:	b0000450 	adrp	x16, 489000 <_GLOBAL_OFFSET_TABLE_+0xb8>
  4002e4:	f9401211 	ldr	x17, [x16, #32]
  4002e8:	91008210 	add	x16, x16, #0x20
  4002ec:	d61f0220 	br	x17
  4002f0:	b0000450 	adrp	x16, 489000 <_GLOBAL_OFFSET_TABLE_+0xb8>
  4002f4:	f9401611 	ldr	x17, [x16, #40]
  4002f8:	9100a210 	add	x16, x16, #0x28
  4002fc:	d61f0220 	br	x17
  400300:	b0000450 	adrp	x16, 489000 <_GLOBAL_OFFSET_TABLE_+0xb8>
  400304:	f9401a11 	ldr	x17, [x16, #48]
  400308:	9100c210 	add	x16, x16, #0x30
  40030c:	d61f0220 	br	x17

Disassembly of section .text:

0000000000400340 <abort>:
  400340:	a9ac7bfd 	stp	x29, x30, [sp, #-320]!
  400344:	90000440 	adrp	x0, 488000 <__FRAME_END__+0xff7c>
  400348:	9126c000 	add	x0, x0, #0x9b0
  40034c:	910003fd 	mov	x29, sp
  400350:	a90153f3 	stp	x19, x20, [sp, #16]
  400354:	d0000453 	adrp	x19, 48a000 <_dl_main_map+0xc0>
  400358:	913be273 	add	x19, x19, #0xef8
  40035c:	f9400001 	ldr	x1, [x0]
  400360:	f9009fe1 	str	x1, [sp, #312]
  400364:	d2800001 	mov	x1, #0x0                   	// #0
  400368:	d53bd054 	mrs	x20, tpidr_el0
  40036c:	d11c0294 	sub	x20, x20, #0x700
  400370:	f9400660 	ldr	x0, [x19, #8]
  400374:	eb14001f 	cmp	x0, x20
  400378:	54000120 	b.eq	40039c <abort+0x5c>  // b.none
  40037c:	aa1303e2 	mov	x2, x19
  400380:	52800021 	mov	w1, #0x1                   	// #1
  400384:	52800000 	mov	w0, #0x0                   	// #0
  400388:	94012eca 	bl	44beb0 <__aarch64_cas4_acq>
  40038c:	34000060 	cbz	w0, 400398 <abort+0x58>
  400390:	aa1303e0 	mov	x0, x19
  400394:	94004e5d 	bl	413d08 <__lll_lock_wait_private>
  400398:	f9000674 	str	x20, [x19, #8]
  40039c:	b9400660 	ldr	w0, [x19, #4]
  4003a0:	b9401261 	ldr	w1, [x19, #16]
  4003a4:	11000400 	add	w0, w0, #0x1
  4003a8:	b9000660 	str	w0, [x19, #4]
  4003ac:	35000201 	cbnz	w1, 4003ec <abort+0xac>
  4003b0:	910083e1 	add	x1, sp, #0x20
  4003b4:	52800022 	mov	w2, #0x1                   	// #1
  4003b8:	d2800200 	mov	x0, #0x10                  	// #16
  4003bc:	b9001262 	str	w2, [x19, #16]
  4003c0:	d1000400 	sub	x0, x0, #0x1
  4003c4:	b100041f 	cmn	x0, #0x1
  4003c8:	54000060 	b.eq	4003d4 <abort+0x94>  // b.none
  4003cc:	f820783f 	str	xzr, [x1, x0, lsl #3]
  4003d0:	17fffffc 	b	4003c0 <abort+0x80>
  4003d4:	f94013e3 	ldr	x3, [sp, #32]
  4003d8:	d2800002 	mov	x2, #0x0                   	// #0
  4003dc:	52800020 	mov	w0, #0x1                   	// #1
  4003e0:	b27b0063 	orr	x3, x3, #0x20
  4003e4:	f90013e3 	str	x3, [sp, #32]
  4003e8:	94001400 	bl	4053e8 <__sigprocmask>
  4003ec:	b9401260 	ldr	w0, [x19, #16]
  4003f0:	7100041f 	cmp	w0, #0x1
  4003f4:	54000441 	b.ne	40047c <abort+0x13c>  // b.any
  4003f8:	b9400660 	ldr	w0, [x19, #4]
  4003fc:	b900127f 	str	wzr, [x19, #16]
  400400:	51000400 	sub	w0, w0, #0x1
  400404:	b9000660 	str	w0, [x19, #4]
  400408:	35000180 	cbnz	w0, 400438 <abort+0xf8>
  40040c:	f900067f 	str	xzr, [x19, #8]
  400410:	aa1303e1 	mov	x1, x19
  400414:	94012f07 	bl	44c030 <__aarch64_swp4_rel>
  400418:	7100041f 	cmp	w0, #0x1
  40041c:	540000ed 	b.le	400438 <abort+0xf8>
  400420:	aa1303e0 	mov	x0, x19
  400424:	d2801021 	mov	x1, #0x81                  	// #129
  400428:	d2800022 	mov	x2, #0x1                   	// #1
  40042c:	d2800003 	mov	x3, #0x0                   	// #0
  400430:	d2800c48 	mov	x8, #0x62                  	// #98
  400434:	d4000001 	svc	#0x0
  400438:	528000c0 	mov	w0, #0x6                   	// #6
  40043c:	940013a3 	bl	4052c8 <raise>
  400440:	f9400660 	ldr	x0, [x19, #8]
  400444:	eb14001f 	cmp	x0, x20
  400448:	54000120 	b.eq	40046c <abort+0x12c>  // b.none
  40044c:	aa1303e2 	mov	x2, x19
  400450:	52800021 	mov	w1, #0x1                   	// #1
  400454:	52800000 	mov	w0, #0x0                   	// #0
  400458:	94012e96 	bl	44beb0 <__aarch64_cas4_acq>
  40045c:	34000060 	cbz	w0, 400468 <abort+0x128>
  400460:	aa1303e0 	mov	x0, x19
  400464:	94004e29 	bl	413d08 <__lll_lock_wait_private>
  400468:	f9000674 	str	x20, [x19, #8]
  40046c:	b9400660 	ldr	w0, [x19, #4]
  400470:	11000400 	add	w0, w0, #0x1
  400474:	b9000660 	str	w0, [x19, #4]
  400478:	14000003 	b	400484 <abort+0x144>
  40047c:	7100081f 	cmp	w0, #0x2
  400480:	54000261 	b.ne	4004cc <abort+0x18c>  // b.any
  400484:	52800063 	mov	w3, #0x3                   	// #3
  400488:	910283f4 	add	x20, sp, #0xa0
  40048c:	52800001 	mov	w1, #0x0                   	// #0
  400490:	91002280 	add	x0, x20, #0x8
  400494:	d2801202 	mov	x2, #0x90                  	// #144
  400498:	b9001263 	str	w3, [x19, #16]
  40049c:	97ffff8d 	bl	4002d0 <.plt+0x30>
  4004a0:	f90053ff 	str	xzr, [sp, #160]
  4004a4:	d2800200 	mov	x0, #0x10                  	// #16
  4004a8:	92800001 	mov	x1, #0xffffffffffffffff    	// #-1
  4004ac:	f8207a81 	str	x1, [x20, x0, lsl #3]
  4004b0:	f1000400 	subs	x0, x0, #0x1
  4004b4:	54ffffc1 	b.ne	4004ac <abort+0x16c>  // b.any
  4004b8:	aa1403e1 	mov	x1, x20
  4004bc:	d2800002 	mov	x2, #0x0                   	// #0
  4004c0:	528000c0 	mov	w0, #0x6                   	// #6
  4004c4:	b9012bff 	str	wzr, [sp, #296]
  4004c8:	9400b2b2 	bl	42cf90 <__sigaction>
  4004cc:	b9401260 	ldr	w0, [x19, #16]
  4004d0:	71000c1f 	cmp	w0, #0x3
  4004d4:	540000a1 	b.ne	4004e8 <abort+0x1a8>  // b.any
  4004d8:	52800081 	mov	w1, #0x4                   	// #4
  4004dc:	528000c0 	mov	w0, #0x6                   	// #6
  4004e0:	b9001261 	str	w1, [x19, #16]
  4004e4:	94001379 	bl	4052c8 <raise>
  4004e8:	b9401260 	ldr	w0, [x19, #16]
  4004ec:	7100101f 	cmp	w0, #0x4
  4004f0:	54000081 	b.ne	400500 <abort+0x1c0>  // b.any
  4004f4:	528000a0 	mov	w0, #0x5                   	// #5
  4004f8:	b9001260 	str	w0, [x19, #16]
  4004fc:	d4207d00 	brk	#0x3e8
  400500:	b9401260 	ldr	w0, [x19, #16]
  400504:	7100141f 	cmp	w0, #0x5
  400508:	540000a1 	b.ne	40051c <abort+0x1dc>  // b.any
  40050c:	528000c1 	mov	w1, #0x6                   	// #6
  400510:	52800fe0 	mov	w0, #0x7f                  	// #127
  400514:	b9001261 	str	w1, [x19, #16]
  400518:	940075da 	bl	41dc80 <_exit>
  40051c:	d4207d00 	brk	#0x3e8
  400520:	17ffffff 	b	40051c <abort+0x1dc>

0000000000400524 <_dl_start>:
  400524:	a9bf7bfd 	stp	x29, x30, [sp, #-16]!
  400528:	910003fd 	mov	x29, sp
  40052c:	97ffff85 	bl	400340 <abort>

0000000000400530 <fini>:
  400530:	f0000440 	adrp	x0, 48b000 <initial+0xd0>
  400534:	91180000 	add	x0, x0, #0x600
  400538:	91008000 	add	x0, x0, #0x20
  40053c:	14011943 	b	446a48 <check_free.isra.0>

0000000000400540 <init_have_lse_atomics>:
  400540:	a9bf7bfd 	stp	x29, x30, [sp, #-16]!
  400544:	d2800200 	mov	x0, #0x10                  	// #16
  400548:	910003fd 	mov	x29, sp
  40054c:	94014177 	bl	450b28 <__getauxval>
  400550:	53082000 	ubfx	w0, w0, #8, #1
  400554:	f0000441 	adrp	x1, 48b000 <initial+0xd0>
  400558:	a8c17bfd 	ldp	x29, x30, [sp], #16
  40055c:	391c3020 	strb	w0, [x1, #1804]
  400560:	d65f03c0 	ret

0000000000400564 <_start>:
  400564:	d280001d 	mov	x29, #0x0                   	// #0
  400568:	d280001e 	mov	x30, #0x0                   	// #0
  40056c:	aa0003e5 	mov	x5, x0
  400570:	f94003e1 	ldr	x1, [sp]
  400574:	910023e2 	add	x2, sp, #0x8
  400578:	910003e6 	mov	x6, sp
  40057c:	d2e00000 	movz	x0, #0x0, lsl #48
  400580:	f2c00000 	movk	x0, #0x0, lsl #32
  400584:	f2a00800 	movk	x0, #0x40, lsl #16
  400588:	f280d680 	movk	x0, #0x6b4
  40058c:	d2e00003 	movz	x3, #0x0, lsl #48
  400590:	f2c00003 	movk	x3, #0x0, lsl #32
  400594:	f2a00803 	movk	x3, #0x40, lsl #16
  400598:	f281c403 	movk	x3, #0xe20
  40059c:	d2e00004 	movz	x4, #0x0, lsl #48
  4005a0:	f2c00004 	movk	x4, #0x0, lsl #32
  4005a4:	f2a00804 	movk	x4, #0x40, lsl #16
  4005a8:	f281dd04 	movk	x4, #0xee8
  4005ac:	9400006b 	bl	400758 <__libc_start_main>
  4005b0:	97ffff64 	bl	400340 <abort>

00000000004005b4 <call_weak_fn>:
  4005b4:	90000440 	adrp	x0, 488000 <__FRAME_END__+0xff7c>
  4005b8:	f947f000 	ldr	x0, [x0, #4064]
  4005bc:	b4000040 	cbz	x0, 4005c4 <call_weak_fn+0x10>
  4005c0:	d503201f 	nop
  4005c4:	d65f03c0 	ret

00000000004005c8 <deregister_tm_clones>:
  4005c8:	d0000440 	adrp	x0, 48a000 <_dl_main_map+0xc0>
  4005cc:	91262000 	add	x0, x0, #0x988
  4005d0:	d0000441 	adrp	x1, 48a000 <_dl_main_map+0xc0>
  4005d4:	91262021 	add	x1, x1, #0x988
  4005d8:	eb00003f 	cmp	x1, x0
  4005dc:	540000c0 	b.eq	4005f4 <deregister_tm_clones+0x2c>  // b.none
  4005e0:	b0000281 	adrp	x1, 451000 <free_modules_db+0x18>
  4005e4:	f9441c21 	ldr	x1, [x1, #2104]
  4005e8:	b4000061 	cbz	x1, 4005f4 <deregister_tm_clones+0x2c>
  4005ec:	aa0103f0 	mov	x16, x1
  4005f0:	d61f0200 	br	x16
  4005f4:	d65f03c0 	ret

00000000004005f8 <register_tm_clones>:
  4005f8:	d0000440 	adrp	x0, 48a000 <_dl_main_map+0xc0>
  4005fc:	91262000 	add	x0, x0, #0x988
  400600:	d0000441 	adrp	x1, 48a000 <_dl_main_map+0xc0>
  400604:	91262021 	add	x1, x1, #0x988
  400608:	cb000021 	sub	x1, x1, x0
  40060c:	d37ffc22 	lsr	x2, x1, #63
  400610:	8b810c41 	add	x1, x2, x1, asr #3
  400614:	eb8107ff 	cmp	xzr, x1, asr #1
  400618:	9341fc21 	asr	x1, x1, #1
  40061c:	540000c0 	b.eq	400634 <register_tm_clones+0x3c>  // b.none
  400620:	b0000282 	adrp	x2, 451000 <free_modules_db+0x18>
  400624:	f9442042 	ldr	x2, [x2, #2112]
  400628:	b4000062 	cbz	x2, 400634 <register_tm_clones+0x3c>
  40062c:	aa0203f0 	mov	x16, x2
  400630:	d61f0200 	br	x16
  400634:	d65f03c0 	ret

0000000000400638 <__do_global_dtors_aux>:
  400638:	a9be7bfd 	stp	x29, x30, [sp, #-32]!
  40063c:	910003fd 	mov	x29, sp
  400640:	f9000bf3 	str	x19, [sp, #16]
  400644:	d0000453 	adrp	x19, 48a000 <_dl_main_map+0xc0>
  400648:	39662260 	ldrb	w0, [x19, #2440]
  40064c:	35000140 	cbnz	w0, 400674 <__do_global_dtors_aux+0x3c>
  400650:	97ffffde 	bl	4005c8 <deregister_tm_clones>
  400654:	b0000280 	adrp	x0, 451000 <free_modules_db+0x18>
  400658:	f9442400 	ldr	x0, [x0, #2120]
  40065c:	b4000080 	cbz	x0, 40066c <__do_global_dtors_aux+0x34>
  400660:	b0000360 	adrp	x0, 46d000 <__PRETTY_FUNCTION__.12629+0x90>
  400664:	91334000 	add	x0, x0, #0xcd0
  400668:	94013f8c 	bl	450498 <__deregister_frame_info>
  40066c:	52800020 	mov	w0, #0x1                   	// #1
  400670:	39262260 	strb	w0, [x19, #2440]
  400674:	f9400bf3 	ldr	x19, [sp, #16]
  400678:	a8c27bfd 	ldp	x29, x30, [sp], #32
  40067c:	d65f03c0 	ret

0000000000400680 <frame_dummy>:
  400680:	b0000280 	adrp	x0, 451000 <free_modules_db+0x18>
  400684:	f9442800 	ldr	x0, [x0, #2128]
  400688:	b4000140 	cbz	x0, 4006b0 <frame_dummy+0x30>
  40068c:	a9bf7bfd 	stp	x29, x30, [sp, #-16]!
  400690:	d0000441 	adrp	x1, 48a000 <_dl_main_map+0xc0>
  400694:	b0000360 	adrp	x0, 46d000 <__PRETTY_FUNCTION__.12629+0x90>
  400698:	910003fd 	mov	x29, sp
  40069c:	91264021 	add	x1, x1, #0x990
  4006a0:	91334000 	add	x0, x0, #0xcd0
  4006a4:	94013edb 	bl	450210 <__register_frame_info>
  4006a8:	a8c17bfd 	ldp	x29, x30, [sp], #16
  4006ac:	17ffffd3 	b	4005f8 <register_tm_clones>
  4006b0:	17ffffd2 	b	4005f8 <register_tm_clones>

00000000004006b4 <main>:
  4006b4:	a9bc7bfd 	stp	x29, x30, [sp, #-64]!
  4006b8:	910003fd 	mov	x29, sp
  4006bc:	b90013ff 	str	wzr, [sp, #16]
  4006c0:	b90017ff 	str	wzr, [sp, #20]
  4006c4:	b9001bff 	str	wzr, [sp, #24]
  4006c8:	b9001fff 	str	wzr, [sp, #28]
  4006cc:	b90023ff 	str	wzr, [sp, #32]
  4006d0:	b90027ff 	str	wzr, [sp, #36]
  4006d4:	f90017ff 	str	xzr, [sp, #40]
  4006d8:	f9001bff 	str	xzr, [sp, #48]
  4006dc:	f9001fff 	str	xzr, [sp, #56]
  4006e0:	d2800031 	mov	x17, #0x1                   	// #1
  4006e4:	d2800053 	mov	x19, #0x2                   	// #2
  4006e8:	aa1103e0 	mov	x0, x17
  4006ec:	b90013e0 	str	w0, [sp, #16]
  4006f0:	aa1303e0 	mov	x0, x19
  4006f4:	b90017e0 	str	w0, [sp, #20]
  4006f8:	a902cff1 	stp	x17, x19, [sp, #40]
  4006fc:	d2800071 	mov	x17, #0x3                   	// #3
  400700:	d2800093 	mov	x19, #0x4                   	// #4
  400704:	aa1103e0 	mov	x0, x17
  400708:	b9001be0 	str	w0, [sp, #24]
  40070c:	aa1303e0 	mov	x0, x19
  400710:	b9001fe0 	str	w0, [sp, #28]
  400714:	a942cff1 	ldp	x17, x19, [sp, #40]
  400718:	aa1103e0 	mov	x0, x17
  40071c:	b90023e0 	str	w0, [sp, #32]
  400720:	aa1303e0 	mov	x0, x19
  400724:	b90027e0 	str	w0, [sp, #36]
  400728:	b94027e6 	ldr	w6, [sp, #36]
  40072c:	b94023e5 	ldr	w5, [sp, #32]
  400730:	b9401fe4 	ldr	w4, [sp, #28]
  400734:	b9401be3 	ldr	w3, [sp, #24]
  400738:	b94017e2 	ldr	w2, [sp, #20]
  40073c:	b94013e1 	ldr	w1, [sp, #16]
  400740:	b0000280 	adrp	x0, 451000 <free_modules_db+0x18>
  400744:	91216000 	add	x0, x0, #0x858
  400748:	940017ea 	bl	4066f0 <_IO_printf>
  40074c:	52800000 	mov	w0, #0x0                   	// #0
  400750:	a8c47bfd 	ldp	x29, x30, [sp], #64
  400754:	d65f03c0 	ret

0000000000400758 <__libc_start_main>:
  400758:	a9a87bfd 	stp	x29, x30, [sp, #-384]!
  40075c:	b0000287 	adrp	x7, 451000 <free_modules_db+0x18>
  400760:	910003fd 	mov	x29, sp
  400764:	f944e8e7 	ldr	x7, [x7, #2512]
  400768:	a90153f3 	stp	x19, x20, [sp, #16]
  40076c:	aa0303f3 	mov	x19, x3
  400770:	a9025bf5 	stp	x21, x22, [sp, #32]
  400774:	aa0403f4 	mov	x20, x4
  400778:	aa0503f5 	mov	x21, x5
  40077c:	a90363f7 	stp	x23, x24, [sp, #48]
  400780:	a9046bf9 	stp	x25, x26, [sp, #64]
  400784:	f9002bfb 	str	x27, [sp, #80]
  400788:	b9006fe1 	str	w1, [sp, #108]
  40078c:	52800001 	mov	w1, #0x0                   	// #0
  400790:	a90703e2 	stp	x2, x0, [sp, #112]
  400794:	b4000087 	cbz	x7, 4007a4 <__libc_start_main+0x4c>
  400798:	b94000e0 	ldr	w0, [x7]
  40079c:	7100001f 	cmp	w0, #0x0
  4007a0:	1a9f17e1 	cset	w1, eq  // eq = none
  4007a4:	f9403be5 	ldr	x5, [sp, #112]
  4007a8:	f0000443 	adrp	x3, 48b000 <initial+0xd0>
  4007ac:	b9406fe0 	ldr	w0, [sp, #108]
  4007b0:	d0000444 	adrp	x4, 48a000 <_dl_main_map+0xc0>
  4007b4:	90000442 	adrp	x2, 488000 <__FRAME_END__+0xff7c>
  4007b8:	b9055881 	str	w1, [x4, #1368]
  4007bc:	8b20cca0 	add	x0, x5, w0, sxtw #3
  4007c0:	f9077c46 	str	x6, [x2, #3832]
  4007c4:	91002000 	add	x0, x0, #0x8
  4007c8:	f9020860 	str	x0, [x3, #1040]
  4007cc:	d503201f 	nop
  4007d0:	f8408401 	ldr	x1, [x0], #8
  4007d4:	b5ffffe1 	cbnz	x1, 4007d0 <__libc_start_main+0x78>
  4007d8:	94008154 	bl	420d28 <_dl_aux_init>
  4007dc:	f0000441 	adrp	x1, 48b000 <initial+0xd0>
  4007e0:	b0000280 	adrp	x0, 451000 <free_modules_db+0x18>
  4007e4:	f9471822 	ldr	x2, [x1, #3632]
  4007e8:	f944ec00 	ldr	x0, [x0, #2520]
  4007ec:	f100005f 	cmp	x2, #0x0
  4007f0:	fa400804 	ccmp	x0, #0x0, #0x4, eq  // eq = none
  4007f4:	540007e1 	b.ne	4008f0 <__libc_start_main+0x198>  // b.any
  4007f8:	940084bc 	bl	421ae8 <__libc_init_secure>
  4007fc:	f0000440 	adrp	x0, 48b000 <initial+0xd0>
  400800:	f9420800 	ldr	x0, [x0, #1040]
  400804:	94008007 	bl	420820 <__tunables_init>
  400808:	910223e1 	add	x1, sp, #0x88
  40080c:	d2800002 	mov	x2, #0x0                   	// #0
  400810:	52800060 	mov	w0, #0x3                   	// #3
  400814:	94008127 	bl	420cb0 <__tunable_get_val>
  400818:	f94047f6 	ldr	x22, [sp, #136]
  40081c:	b4000196 	cbz	x22, 40084c <__libc_start_main+0xf4>
  400820:	b0000298 	adrp	x24, 451000 <free_modules_db+0x18>
  400824:	9127e318 	add	x24, x24, #0x9f8
  400828:	d2800017 	mov	x23, #0x0                   	// #0
  40082c:	d37ceee1 	lsl	x1, x23, #4
  400830:	aa1603e0 	mov	x0, x22
  400834:	f8786821 	ldr	x1, [x1, x24]
  400838:	94006562 	bl	419dc0 <strcmp>
  40083c:	34000fc0 	cbz	w0, 400a34 <__libc_start_main+0x2dc>
  400840:	910006f7 	add	x23, x23, #0x1
  400844:	f10026ff 	cmp	x23, #0x9
  400848:	54ffff21 	b.ne	40082c <__libc_start_main+0xd4>  // b.any
  40084c:	f0000440 	adrp	x0, 48b000 <initial+0xd0>
  400850:	f9421801 	ldr	x1, [x0, #1072]
  400854:	92750020 	and	x0, x1, #0x800
  400858:	36580041 	tbz	w1, #11, 400860 <__libc_start_main+0x108>
  40085c:	d5380000 	mrs	x0, midr_el1
  400860:	f0000441 	adrp	x1, 48b000 <initial+0xd0>
  400864:	9110e022 	add	x2, x1, #0x438
  400868:	f9021c20 	str	x0, [x1, #1080]
  40086c:	d53b00e0 	mrs	x0, dczid_el0
  400870:	372000a0 	tbnz	w0, #4, 400884 <__libc_start_main+0x12c>
  400874:	12000c00 	and	w0, w0, #0xf
  400878:	52800081 	mov	w1, #0x4                   	// #4
  40087c:	1ac02020 	lsl	w0, w1, w0
  400880:	b9000840 	str	w0, [x2, #8]
  400884:	b0000280 	adrp	x0, 451000 <free_modules_db+0x18>
  400888:	b000029b 	adrp	x27, 451000 <free_modules_db+0x18>
  40088c:	d2800318 	mov	x24, #0x18                  	// #24
  400890:	f000045a 	adrp	x26, 48b000 <initial+0xd0>
  400894:	f944e416 	ldr	x22, [x0, #2504]
  400898:	f0000459 	adrp	x25, 48b000 <initial+0xd0>
  40089c:	1400000b 	b	4008c8 <__libc_start_main+0x170>
  4008a0:	f9400ac2 	ldr	x2, [x22, #16]
  4008a4:	910062d6 	add	x22, x22, #0x18
  4008a8:	f9421b40 	ldr	x0, [x26, #1072]
  4008ac:	a90903f8 	stp	x24, x0, [sp, #144]
  4008b0:	f9421321 	ldr	x1, [x25, #1056]
  4008b4:	f90053e1 	str	x1, [sp, #160]
  4008b8:	b2420000 	orr	x0, x0, #0x4000000000000000
  4008bc:	910243e1 	add	x1, sp, #0x90
  4008c0:	d63f0040 	blr	x2
  4008c4:	f90002e0 	str	x0, [x23]
  4008c8:	f944f360 	ldr	x0, [x27, #2528]
  4008cc:	eb0002df 	cmp	x22, x0
  4008d0:	54000342 	b.cs	400938 <__libc_start_main+0x1e0>  // b.hs, b.nlast
  4008d4:	b9400ac0 	ldr	w0, [x22, #8]
  4008d8:	f94002d7 	ldr	x23, [x22]
  4008dc:	f110201f 	cmp	x0, #0x408
  4008e0:	54fffe00 	b.eq	4008a0 <__libc_start_main+0x148>  // b.none
  4008e4:	b0000280 	adrp	x0, 451000 <free_modules_db+0x18>
  4008e8:	91236000 	add	x0, x0, #0x8d8
  4008ec:	9400396b 	bl	40ee98 <__libc_fatal>
  4008f0:	79406c02 	ldrh	w2, [x0, #54]
  4008f4:	7100e05f 	cmp	w2, #0x38
  4008f8:	54000120 	b.eq	40091c <__libc_start_main+0x1c4>  // b.none
  4008fc:	b0000283 	adrp	x3, 451000 <free_modules_db+0x18>
  400900:	b0000281 	adrp	x1, 451000 <free_modules_db+0x18>
  400904:	b0000280 	adrp	x0, 451000 <free_modules_db+0x18>
  400908:	91252063 	add	x3, x3, #0x948
  40090c:	91224021 	add	x1, x1, #0x890
  400910:	9122a000 	add	x0, x0, #0x8a8
  400914:	52801682 	mov	w2, #0xb4                  	// #180
  400918:	940001e0 	bl	401098 <__assert_fail>
  40091c:	f9401002 	ldr	x2, [x0, #32]
  400920:	f0000443 	adrp	x3, 48b000 <initial+0xd0>
  400924:	79407004 	ldrh	w4, [x0, #56]
  400928:	f9073464 	str	x4, [x3, #3688]
  40092c:	8b000040 	add	x0, x2, x0
  400930:	f9071820 	str	x0, [x1, #3632]
  400934:	17ffffb1 	b	4007f8 <__libc_start_main+0xa0>
  400938:	940000a6 	bl	400bd0 <__libc_setup_tls>
  40093c:	90000440 	adrp	x0, 488000 <__FRAME_END__+0xff7c>
  400940:	d0000441 	adrp	x1, 48a000 <_dl_main_map+0xc0>
  400944:	90000442 	adrp	x2, 488000 <__FRAME_END__+0xff7c>
  400948:	f9472c00 	ldr	x0, [x0, #3672]
  40094c:	b9455821 	ldr	w1, [x1, #1368]
  400950:	f9400000 	ldr	x0, [x0]
  400954:	9278dc00 	and	x0, x0, #0xffffffffffffff00
  400958:	f904d840 	str	x0, [x2, #2480]
  40095c:	34000761 	cbz	w1, 400a48 <__libc_start_main+0x2f0>
  400960:	b0000280 	adrp	x0, 451000 <free_modules_db+0x18>
  400964:	f944f400 	ldr	x0, [x0, #2536]
  400968:	b4000040 	cbz	x0, 400970 <__libc_start_main+0x218>
  40096c:	d503201f 	nop
  400970:	90000441 	adrp	x1, 488000 <__FRAME_END__+0xff7c>
  400974:	90000440 	adrp	x0, 488000 <__FRAME_END__+0xff7c>
  400978:	f9472c21 	ldr	x1, [x1, #3672]
  40097c:	f9400421 	ldr	x1, [x1, #8]
  400980:	f904dc01 	str	x1, [x0, #2488]
  400984:	b40000b5 	cbz	x21, 400998 <__libc_start_main+0x240>
  400988:	aa1503e0 	mov	x0, x21
  40098c:	d2800002 	mov	x2, #0x0                   	// #0
  400990:	d2800001 	mov	x1, #0x0                   	// #0
  400994:	940015af 	bl	406050 <__cxa_atexit>
  400998:	f0000442 	adrp	x2, 48b000 <initial+0xd0>
  40099c:	b9406fe0 	ldr	w0, [sp, #108]
  4009a0:	f9403be1 	ldr	x1, [sp, #112]
  4009a4:	f9420842 	ldr	x2, [x2, #1040]
  4009a8:	940084c8 	bl	421cc8 <__libc_init_first>
  4009ac:	b40000b4 	cbz	x20, 4009c0 <__libc_start_main+0x268>
  4009b0:	aa1403e0 	mov	x0, x20
  4009b4:	d2800002 	mov	x2, #0x0                   	// #0
  4009b8:	d2800001 	mov	x1, #0x0                   	// #0
  4009bc:	940015a5 	bl	406050 <__cxa_atexit>
  4009c0:	90000440 	adrp	x0, 488000 <__FRAME_END__+0xff7c>
  4009c4:	b94f0000 	ldr	w0, [x0, #3840]
  4009c8:	35000760 	cbnz	w0, 400ab4 <__libc_start_main+0x35c>
  4009cc:	b40000d3 	cbz	x19, 4009e4 <__libc_start_main+0x28c>
  4009d0:	f0000442 	adrp	x2, 48b000 <initial+0xd0>
  4009d4:	b9406fe0 	ldr	w0, [sp, #108]
  4009d8:	f9403be1 	ldr	x1, [sp, #112]
  4009dc:	f9420842 	ldr	x2, [x2, #1040]
  4009e0:	d63f0260 	blr	x19
  4009e4:	d2800001 	mov	x1, #0x0                   	// #0
  4009e8:	d2800000 	mov	x0, #0x0                   	// #0
  4009ec:	94007f2d 	bl	4206a0 <_dl_debug_initialize>
  4009f0:	9102a3e0 	add	x0, sp, #0xa8
  4009f4:	94001207 	bl	405210 <_setjmp>
  4009f8:	35000440 	cbnz	w0, 400a80 <__libc_start_main+0x328>
  4009fc:	d53bd040 	mrs	x0, tpidr_el0
  400a00:	f0000441 	adrp	x1, 48b000 <initial+0xd0>
  400a04:	d11c0000 	sub	x0, x0, #0x700
  400a08:	9102a3e3 	add	x3, sp, #0xa8
  400a0c:	f9420822 	ldr	x2, [x1, #1040]
  400a10:	f9408004 	ldr	x4, [x0, #256]
  400a14:	f9008003 	str	x3, [x0, #256]
  400a18:	f9407c03 	ldr	x3, [x0, #248]
  400a1c:	a9160fe4 	stp	x4, x3, [sp, #352]
  400a20:	b9406fe0 	ldr	w0, [sp, #108]
  400a24:	f9403be1 	ldr	x1, [sp, #112]
  400a28:	f9403fe3 	ldr	x3, [sp, #120]
  400a2c:	d63f0060 	blr	x3
  400a30:	940014fc 	bl	405e20 <exit>
  400a34:	8b37d318 	add	x24, x24, w23, sxtw #4
  400a38:	f9400700 	ldr	x0, [x24, #8]
  400a3c:	b100041f 	cmn	x0, #0x1
  400a40:	54fff101 	b.ne	400860 <__libc_start_main+0x108>  // b.any
  400a44:	17ffff82 	b	40084c <__libc_start_main+0xf4>
  400a48:	94008454 	bl	421b98 <_dl_discover_osversion>
  400a4c:	37f803e0 	tbnz	w0, #31, 400ac8 <__libc_start_main+0x370>
  400a50:	f0000441 	adrp	x1, 48b000 <initial+0xd0>
  400a54:	b94e8821 	ldr	w1, [x1, #3720]
  400a58:	35000321 	cbnz	w1, 400abc <__libc_start_main+0x364>
  400a5c:	f0000441 	adrp	x1, 48b000 <initial+0xd0>
  400a60:	b90e8820 	str	w0, [x1, #3720]
  400a64:	5280dfe1 	mov	w1, #0x6ff                 	// #1791
  400a68:	72a00061 	movk	w1, #0x3, lsl #16
  400a6c:	6b01001f 	cmp	w0, w1
  400a70:	54fff78c 	b.gt	400960 <__libc_start_main+0x208>
  400a74:	b0000280 	adrp	x0, 451000 <free_modules_db+0x18>
  400a78:	91242000 	add	x0, x0, #0x908
  400a7c:	94003907 	bl	40ee98 <__libc_fatal>
  400a80:	d503201f 	nop
  400a84:	b0000281 	adrp	x1, 451000 <free_modules_db+0x18>
  400a88:	12800000 	mov	w0, #0xffffffff            	// #-1
  400a8c:	f944f821 	ldr	x1, [x1, #2544]
  400a90:	94012d44 	bl	44bfa0 <__aarch64_ldadd4_acq>
  400a94:	7100041f 	cmp	w0, #0x1
  400a98:	540000a0 	b.eq	400aac <__libc_start_main+0x354>  // b.none
  400a9c:	d2800ba8 	mov	x8, #0x5d                  	// #93
  400aa0:	d2800000 	mov	x0, #0x0                   	// #0
  400aa4:	d4000001 	svc	#0x0
  400aa8:	17fffffe 	b	400aa0 <__libc_start_main+0x348>
  400aac:	52800000 	mov	w0, #0x0                   	// #0
  400ab0:	940014dc 	bl	405e20 <exit>
  400ab4:	9400003b 	bl	400ba0 <__libc_check_standard_fds>
  400ab8:	17ffffc5 	b	4009cc <__libc_start_main+0x274>
  400abc:	6b00003f 	cmp	w1, w0
  400ac0:	54fffd29 	b.ls	400a64 <__libc_start_main+0x30c>  // b.plast
  400ac4:	17ffffe6 	b	400a5c <__libc_start_main+0x304>
  400ac8:	b0000280 	adrp	x0, 451000 <free_modules_db+0x18>
  400acc:	91248000 	add	x0, x0, #0x920
  400ad0:	940038f2 	bl	40ee98 <__libc_fatal>
  400ad4:	d503201f 	nop

0000000000400ad8 <check_one_fd>:
  400ad8:	a9b57bfd 	stp	x29, x30, [sp, #-176]!
  400adc:	910003fd 	mov	x29, sp
  400ae0:	a90153f3 	stp	x19, x20, [sp, #16]
  400ae4:	2a0103f4 	mov	w20, w1
  400ae8:	2a0003f3 	mov	w19, w0
  400aec:	52800021 	mov	w1, #0x1                   	// #1
  400af0:	9400783e 	bl	41ebe8 <__fcntl64_nocancel>
  400af4:	3100041f 	cmn	w0, #0x1
  400af8:	54000080 	b.eq	400b08 <check_one_fd+0x30>  // b.none
  400afc:	a94153f3 	ldp	x19, x20, [sp, #16]
  400b00:	a8cb7bfd 	ldp	x29, x30, [sp], #176
  400b04:	d65f03c0 	ret
  400b08:	90000440 	adrp	x0, 488000 <__FRAME_END__+0xff7c>
  400b0c:	f947c800 	ldr	x0, [x0, #3984]
  400b10:	d53bd041 	mrs	x1, tpidr_el0
  400b14:	b8606820 	ldr	w0, [x1, x0]
  400b18:	7100241f 	cmp	w0, #0x9
  400b1c:	54ffff01 	b.ne	400afc <check_one_fd+0x24>  // b.any
  400b20:	f90013f5 	str	x21, [sp, #32]
  400b24:	7140229f 	cmp	w20, #0x8, lsl #12
  400b28:	54000301 	b.ne	400b88 <check_one_fd+0xb0>  // b.any
  400b2c:	b0000280 	adrp	x0, 451000 <free_modules_db+0x18>
  400b30:	912a6000 	add	x0, x0, #0xa98
  400b34:	d2802075 	mov	x21, #0x103                 	// #259
  400b38:	2a1403e1 	mov	w1, w20
  400b3c:	52800002 	mov	w2, #0x0                   	// #0
  400b40:	94007844 	bl	41ec50 <__open64_nocancel>
  400b44:	6b00027f 	cmp	w19, w0
  400b48:	540001a1 	b.ne	400b7c <check_one_fd+0xa4>  // b.any
  400b4c:	2a1303e1 	mov	w1, w19
  400b50:	9100c3e2 	add	x2, sp, #0x30
  400b54:	52800000 	mov	w0, #0x0                   	// #0
  400b58:	94007570 	bl	41e118 <__fxstat>
  400b5c:	35000100 	cbnz	w0, 400b7c <check_one_fd+0xa4>
  400b60:	b94043e0 	ldr	w0, [sp, #64]
  400b64:	12140c00 	and	w0, w0, #0xf000
  400b68:	7140081f 	cmp	w0, #0x2, lsl #12
  400b6c:	54000081 	b.ne	400b7c <check_one_fd+0xa4>  // b.any
  400b70:	f9402be0 	ldr	x0, [sp, #80]
  400b74:	eb15001f 	cmp	x0, x21
  400b78:	54000100 	b.eq	400b98 <check_one_fd+0xc0>  // b.none
  400b7c:	d4207d00 	brk	#0x3e8
  400b80:	d4207d00 	brk	#0x3e8
  400b84:	17fffffe 	b	400b7c <check_one_fd+0xa4>
  400b88:	b0000280 	adrp	x0, 451000 <free_modules_db+0x18>
  400b8c:	d28020f5 	mov	x21, #0x107                 	// #263
  400b90:	912a2000 	add	x0, x0, #0xa88
  400b94:	17ffffe9 	b	400b38 <check_one_fd+0x60>
  400b98:	f94013f5 	ldr	x21, [sp, #32]
  400b9c:	17ffffd8 	b	400afc <check_one_fd+0x24>

0000000000400ba0 <__libc_check_standard_fds>:
  400ba0:	a9bf7bfd 	stp	x29, x30, [sp, #-16]!
  400ba4:	52900021 	mov	w1, #0x8001                	// #32769
  400ba8:	52800000 	mov	w0, #0x0                   	// #0
  400bac:	910003fd 	mov	x29, sp
  400bb0:	97ffffca 	bl	400ad8 <check_one_fd>
  400bb4:	52900001 	mov	w1, #0x8000                	// #32768
  400bb8:	52800020 	mov	w0, #0x1                   	// #1
  400bbc:	97ffffc7 	bl	400ad8 <check_one_fd>
  400bc0:	a8c17bfd 	ldp	x29, x30, [sp], #16
  400bc4:	52900001 	mov	w1, #0x8000                	// #32768
  400bc8:	52800040 	mov	w0, #0x2                   	// #2
  400bcc:	17ffffc3 	b	400ad8 <check_one_fd>

0000000000400bd0 <__libc_setup_tls>:
  400bd0:	a9b87bfd 	stp	x29, x30, [sp, #-128]!
  400bd4:	f0000441 	adrp	x1, 48b000 <initial+0xd0>
  400bd8:	d0000440 	adrp	x0, 48a000 <_dl_main_map+0xc0>
  400bdc:	910003fd 	mov	x29, sp
  400be0:	a90153f3 	stp	x19, x20, [sp, #16]
  400be4:	f9471833 	ldr	x19, [x1, #3632]
  400be8:	a9025bf5 	stp	x21, x22, [sp, #32]
  400bec:	a90363f7 	stp	x23, x24, [sp, #48]
  400bf0:	a9046bf9 	stp	x25, x26, [sp, #64]
  400bf4:	a90573fb 	stp	x27, x28, [sp, #80]
  400bf8:	f9424817 	ldr	x23, [x0, #1168]
  400bfc:	b4000df3 	cbz	x19, 400db8 <__libc_setup_tls+0x1e8>
  400c00:	f0000440 	adrp	x0, 48b000 <initial+0xd0>
  400c04:	f9473400 	ldr	x0, [x0, #3688]
  400c08:	d37df001 	lsl	x1, x0, #3
  400c0c:	cb000021 	sub	x1, x1, x0
  400c10:	8b010e61 	add	x1, x19, x1, lsl #3
  400c14:	eb01027f 	cmp	x19, x1
  400c18:	540000a3 	b.cc	400c2c <__libc_setup_tls+0x5c>  // b.lo, b.ul, b.last
  400c1c:	14000071 	b	400de0 <__libc_setup_tls+0x210>
  400c20:	9100e273 	add	x19, x19, #0x38
  400c24:	eb01027f 	cmp	x19, x1
  400c28:	54000b22 	b.cs	400d8c <__libc_setup_tls+0x1bc>  // b.hs, b.nlast
  400c2c:	b9400260 	ldr	w0, [x19]
  400c30:	71001c1f 	cmp	w0, #0x7
  400c34:	54ffff61 	b.ne	400c20 <__libc_setup_tls+0x50>  // b.any
  400c38:	f9401a78 	ldr	x24, [x19, #48]
  400c3c:	d2800215 	mov	x21, #0x10                  	// #16
  400c40:	f94002e0 	ldr	x0, [x23]
  400c44:	eb15031f 	cmp	x24, x21
  400c48:	f9400a63 	ldr	x3, [x19, #16]
  400c4c:	9a952319 	csel	x25, x24, x21, cs  // cs = hs, nlast
  400c50:	f100031f 	cmp	x24, #0x0
  400c54:	d2800021 	mov	x1, #0x1                   	// #1
  400c58:	d1000724 	sub	x4, x25, #0x1
  400c5c:	cb1903e2 	neg	x2, x25
  400c60:	9a81131a 	csel	x26, x24, x1, ne  // ne = any
  400c64:	8b030000 	add	x0, x0, x3
  400c68:	a942527c 	ldp	x28, x20, [x19, #32]
  400c6c:	b4000c58 	cbz	x24, 400df4 <__libc_setup_tls+0x224>
  400c70:	91003f15 	add	x21, x24, #0xf
  400c74:	aa0003f3 	mov	x19, x0
  400c78:	9ada0ab5 	udiv	x21, x21, x26
  400c7c:	9b1a7eb5 	mul	x21, x21, x26
  400c80:	aa1503e5 	mov	x5, x21
  400c84:	b000045b 	adrp	x27, 489000 <_GLOBAL_OFFSET_TABLE_+0xb8>
  400c88:	8b190281 	add	x1, x20, x25
  400c8c:	a9068be4 	stp	x4, x2, [sp, #104]
  400c90:	f9402760 	ldr	x0, [x27, #72]
  400c94:	f9003fe5 	str	x5, [sp, #120]
  400c98:	911c0000 	add	x0, x0, #0x700
  400c9c:	8b010000 	add	x0, x0, x1
  400ca0:	8b150000 	add	x0, x0, x21
  400ca4:	94007877 	bl	41ee80 <__sbrk>
  400ca8:	a9468be4 	ldp	x4, x2, [sp, #104]
  400cac:	f0000441 	adrp	x1, 48b000 <initial+0xd0>
  400cb0:	911c0016 	add	x22, x0, #0x700
  400cb4:	9125c023 	add	x3, x1, #0x970
  400cb8:	f9403fe5 	ldr	x5, [sp, #120]
  400cbc:	f9023ee5 	str	x5, [x23, #1144]
  400cc0:	8b0402d6 	add	x22, x22, x4
  400cc4:	8a0202d6 	and	x22, x22, x2
  400cc8:	d28007c2 	mov	x2, #0x3e                  	// #62
  400ccc:	8b1502c0 	add	x0, x22, x21
  400cd0:	a9027c60 	stp	x0, xzr, [x3, #32]
  400cd4:	f904b822 	str	x2, [x1, #2416]
  400cd8:	aa1c03e2 	mov	x2, x28
  400cdc:	aa1303e1 	mov	x1, x19
  400ce0:	97fffd74 	bl	4002b0 <.plt+0x10>
  400ce4:	f0000440 	adrp	x0, 48b000 <initial+0xd0>
  400ce8:	91260000 	add	x0, x0, #0x980
  400cec:	f90002c0 	str	x0, [x22]
  400cf0:	d51bd056 	msr	tpidr_el0, x22
  400cf4:	d0000443 	adrp	x3, 48a000 <_dl_main_map+0xc0>
  400cf8:	91270062 	add	x2, x3, #0x9c0
  400cfc:	f0000447 	adrp	x7, 48b000 <initial+0xd0>
  400d00:	8b180280 	add	x0, x20, x24
  400d04:	f100031f 	cmp	x24, #0x0
  400d08:	d1000400 	sub	x0, x0, #0x1
  400d0c:	f906b8e2 	str	x2, [x7, #3440]
  400d10:	f0000446 	adrp	x6, 48b000 <initial+0xd0>
  400d14:	f9001457 	str	x23, [x2, #40]
  400d18:	911142e2 	add	x2, x23, #0x450
  400d1c:	f0000441 	adrp	x1, 48b000 <initial+0xd0>
  400d20:	f0000445 	adrp	x5, 48b000 <initial+0xd0>
  400d24:	f0000444 	adrp	x4, 48b000 <initial+0xd0>
  400d28:	a9016054 	stp	x20, x24, [x2, #16]
  400d2c:	9a941014 	csel	x20, x0, x20, ne  // ne = any
  400d30:	f9402760 	ldr	x0, [x27, #72]
  400d34:	a9007053 	stp	x19, x28, [x2]
  400d38:	9ada0a94 	udiv	x20, x20, x26
  400d3c:	91003c00 	add	x0, x0, #0xf
  400d40:	f904b039 	str	x25, [x1, #2400]
  400d44:	d2800021 	mov	x1, #0x1                   	// #1
  400d48:	f904b4a1 	str	x1, [x5, #2408]
  400d4c:	f906c481 	str	x1, [x4, #3464]
  400d50:	9b1a5694 	madd	x20, x20, x26, x21
  400d54:	f90242e1 	str	x1, [x23, #1152]
  400d58:	f904acd4 	str	x20, [x6, #2392]
  400d5c:	d2800806 	mov	x6, #0x40                  	// #64
  400d60:	8b140014 	add	x20, x0, x20
  400d64:	f904e066 	str	x6, [x3, #2496]
  400d68:	927cee94 	and	x20, x20, #0xfffffffffffffff0
  400d6c:	f9002774 	str	x20, [x27, #72]
  400d70:	a94153f3 	ldp	x19, x20, [sp, #16]
  400d74:	a9425bf5 	ldp	x21, x22, [sp, #32]
  400d78:	a94363f7 	ldp	x23, x24, [sp, #48]
  400d7c:	a9446bf9 	ldp	x25, x26, [sp, #64]
  400d80:	a94573fb 	ldp	x27, x28, [sp, #80]
  400d84:	a8c87bfd 	ldp	x29, x30, [sp], #128
  400d88:	d65f03c0 	ret
  400d8c:	d2800215 	mov	x21, #0x10                  	// #16
  400d90:	aa1503e5 	mov	x5, x21
  400d94:	aa1503f9 	mov	x25, x21
  400d98:	928001e2 	mov	x2, #0xfffffffffffffff0    	// #-16
  400d9c:	d28001e4 	mov	x4, #0xf                   	// #15
  400da0:	d280003a 	mov	x26, #0x1                   	// #1
  400da4:	d2800018 	mov	x24, #0x0                   	// #0
  400da8:	d2800013 	mov	x19, #0x0                   	// #0
  400dac:	d280001c 	mov	x28, #0x0                   	// #0
  400db0:	d2800014 	mov	x20, #0x0                   	// #0
  400db4:	17ffffb4 	b	400c84 <__libc_setup_tls+0xb4>
  400db8:	d2800215 	mov	x21, #0x10                  	// #16
  400dbc:	928001e2 	mov	x2, #0xfffffffffffffff0    	// #-16
  400dc0:	aa1503e5 	mov	x5, x21
  400dc4:	aa1503f9 	mov	x25, x21
  400dc8:	d28001e4 	mov	x4, #0xf                   	// #15
  400dcc:	d280003a 	mov	x26, #0x1                   	// #1
  400dd0:	d2800018 	mov	x24, #0x0                   	// #0
  400dd4:	d280001c 	mov	x28, #0x0                   	// #0
  400dd8:	d2800014 	mov	x20, #0x0                   	// #0
  400ddc:	17ffffaa 	b	400c84 <__libc_setup_tls+0xb4>
  400de0:	d2800215 	mov	x21, #0x10                  	// #16
  400de4:	928001e2 	mov	x2, #0xfffffffffffffff0    	// #-16
  400de8:	aa1503e5 	mov	x5, x21
  400dec:	aa1503f9 	mov	x25, x21
  400df0:	17ffffeb 	b	400d9c <__libc_setup_tls+0x1cc>
  400df4:	aa0003f3 	mov	x19, x0
  400df8:	aa0103fa 	mov	x26, x1
  400dfc:	aa1503e5 	mov	x5, x21
  400e00:	aa1503f9 	mov	x25, x21
  400e04:	17ffffa0 	b	400c84 <__libc_setup_tls+0xb4>

0000000000400e08 <__tls_get_addr>:
  400e08:	d53bd041 	mrs	x1, tpidr_el0
  400e0c:	f9400400 	ldr	x0, [x0, #8]
  400e10:	f9400021 	ldr	x1, [x1]
  400e14:	f9400821 	ldr	x1, [x1, #16]
  400e18:	8b000020 	add	x0, x1, x0
  400e1c:	d65f03c0 	ret

0000000000400e20 <__libc_csu_init>:
  400e20:	a9bc7bfd 	stp	x29, x30, [sp, #-64]!
  400e24:	910003fd 	mov	x29, sp
  400e28:	a90363f7 	stp	x23, x24, [sp, #48]
  400e2c:	90000457 	adrp	x23, 488000 <__FRAME_END__+0xff7c>
  400e30:	90000458 	adrp	x24, 488000 <__FRAME_END__+0xff7c>
  400e34:	912642f7 	add	x23, x23, #0x990
  400e38:	91264318 	add	x24, x24, #0x990
  400e3c:	cb1802f7 	sub	x23, x23, x24
  400e40:	a90153f3 	stp	x19, x20, [sp, #16]
  400e44:	2a0003f4 	mov	w20, w0
  400e48:	a9025bf5 	stp	x21, x22, [sp, #32]
  400e4c:	eb970fff 	cmp	xzr, x23, asr #3
  400e50:	aa0103f5 	mov	x21, x1
  400e54:	aa0203f6 	mov	x22, x2
  400e58:	54000180 	b.eq	400e88 <__libc_csu_init+0x68>  // b.none
  400e5c:	9343fef7 	asr	x23, x23, #3
  400e60:	d2800013 	mov	x19, #0x0                   	// #0
  400e64:	d503201f 	nop
  400e68:	f8737b03 	ldr	x3, [x24, x19, lsl #3]
  400e6c:	aa1603e2 	mov	x2, x22
  400e70:	91000673 	add	x19, x19, #0x1
  400e74:	aa1503e1 	mov	x1, x21
  400e78:	2a1403e0 	mov	w0, w20
  400e7c:	d63f0060 	blr	x3
  400e80:	eb1302ff 	cmp	x23, x19
  400e84:	54ffff21 	b.ne	400e68 <__libc_csu_init+0x48>  // b.any
  400e88:	90000457 	adrp	x23, 488000 <__FRAME_END__+0xff7c>
  400e8c:	90000458 	adrp	x24, 488000 <__FRAME_END__+0xff7c>
  400e90:	912682f7 	add	x23, x23, #0x9a0
  400e94:	91264318 	add	x24, x24, #0x990
  400e98:	cb1802f7 	sub	x23, x23, x24
  400e9c:	97fffcf9 	bl	400280 <_init>
  400ea0:	eb970fff 	cmp	xzr, x23, asr #3
  400ea4:	9343fef7 	asr	x23, x23, #3
  400ea8:	54000140 	b.eq	400ed0 <__libc_csu_init+0xb0>  // b.none
  400eac:	d2800013 	mov	x19, #0x0                   	// #0
  400eb0:	f8737b03 	ldr	x3, [x24, x19, lsl #3]
  400eb4:	aa1603e2 	mov	x2, x22
  400eb8:	91000673 	add	x19, x19, #0x1
  400ebc:	aa1503e1 	mov	x1, x21
  400ec0:	2a1403e0 	mov	w0, w20
  400ec4:	d63f0060 	blr	x3
  400ec8:	eb1302ff 	cmp	x23, x19
  400ecc:	54ffff21 	b.ne	400eb0 <__libc_csu_init+0x90>  // b.any
  400ed0:	a94153f3 	ldp	x19, x20, [sp, #16]
  400ed4:	a9425bf5 	ldp	x21, x22, [sp, #32]
  400ed8:	a94363f7 	ldp	x23, x24, [sp, #48]
  400edc:	a8c47bfd 	ldp	x29, x30, [sp], #64
  400ee0:	d65f03c0 	ret
  400ee4:	d503201f 	nop

0000000000400ee8 <__libc_csu_fini>:
  400ee8:	a9be7bfd 	stp	x29, x30, [sp, #-32]!
  400eec:	90000440 	adrp	x0, 488000 <__FRAME_END__+0xff7c>
  400ef0:	9126c000 	add	x0, x0, #0x9b0
  400ef4:	910003fd 	mov	x29, sp
  400ef8:	a90153f3 	stp	x19, x20, [sp, #16]
  400efc:	90000454 	adrp	x20, 488000 <__FRAME_END__+0xff7c>
  400f00:	91268294 	add	x20, x20, #0x9a0
  400f04:	cb140000 	sub	x0, x0, x20
  400f08:	9343fc00 	asr	x0, x0, #3
  400f0c:	b4000100 	cbz	x0, 400f2c <__libc_csu_fini+0x44>
  400f10:	d1000413 	sub	x19, x0, #0x1
  400f14:	d503201f 	nop
  400f18:	f8737a80 	ldr	x0, [x20, x19, lsl #3]
  400f1c:	d1000673 	sub	x19, x19, #0x1
  400f20:	d63f0000 	blr	x0
  400f24:	b100067f 	cmn	x19, #0x1
  400f28:	54ffff81 	b.ne	400f18 <__libc_csu_fini+0x30>  // b.any
  400f2c:	a94153f3 	ldp	x19, x20, [sp, #16]
  400f30:	a8c27bfd 	ldp	x29, x30, [sp], #32
  400f34:	1401423a 	b	45181c <_fini>

0000000000400f38 <__assert_fail_base>:
  400f38:	d101c3ff 	sub	sp, sp, #0x70
  400f3c:	b0000286 	adrp	x6, 451000 <free_modules_db+0x18>
  400f40:	90000445 	adrp	x5, 488000 <__FRAME_END__+0xff7c>
  400f44:	9126c0a5 	add	x5, x5, #0x9b0
  400f48:	a9017bfd 	stp	x29, x30, [sp, #16]
  400f4c:	910043fd 	add	x29, sp, #0x10
  400f50:	f9457cc6 	ldr	x6, [x6, #2808]
  400f54:	f94000a7 	ldr	x7, [x5]
  400f58:	f90037e7 	str	x7, [sp, #104]
  400f5c:	d2800007 	mov	x7, #0x0                   	// #0
  400f60:	a90253f3 	stp	x19, x20, [sp, #32]
  400f64:	aa0103f4 	mov	x20, x1
  400f68:	aa0403f3 	mov	x19, x4
  400f6c:	a9035bf5 	stp	x21, x22, [sp, #48]
  400f70:	aa0003f5 	mov	x21, x0
  400f74:	aa0203f6 	mov	x22, x2
  400f78:	f90023f7 	str	x23, [sp, #64]
  400f7c:	2a0303f7 	mov	w23, w3
  400f80:	b4000086 	cbz	x6, 400f90 <__assert_fail_base+0x58>
  400f84:	d2800001 	mov	x1, #0x0                   	// #0
  400f88:	52800020 	mov	w0, #0x1                   	// #1
  400f8c:	d503201f 	nop
  400f90:	b0000440 	adrp	x0, 489000 <_GLOBAL_OFFSET_TABLE_+0xb8>
  400f94:	d0000286 	adrp	x6, 452000 <sigall_set+0x68>
  400f98:	b0000288 	adrp	x8, 451000 <free_modules_db+0x18>
  400f9c:	910620c6 	add	x6, x6, #0x188
  400fa0:	f9479402 	ldr	x2, [x0, #3880]
  400fa4:	912aa108 	add	x8, x8, #0xaa8
  400fa8:	910173e0 	add	x0, sp, #0x5c
  400fac:	2a1703e5 	mov	w5, w23
  400fb0:	aa1603e4 	mov	x4, x22
  400fb4:	aa1503e1 	mov	x1, x21
  400fb8:	39400043 	ldrb	w3, [x2]
  400fbc:	a90003f4 	stp	x20, x0, [sp]
  400fc0:	910183e0 	add	x0, sp, #0x60
  400fc4:	7100007f 	cmp	w3, #0x0
  400fc8:	9a861103 	csel	x3, x8, x6, ne  // ne = any
  400fcc:	f100027f 	cmp	x19, #0x0
  400fd0:	9a861266 	csel	x6, x19, x6, ne  // ne = any
  400fd4:	9a861107 	csel	x7, x8, x6, ne  // ne = any
  400fd8:	940015f6 	bl	4067b0 <___asprintf>
  400fdc:	37f80500 	tbnz	w0, #31, 40107c <__assert_fail_base+0x144>
  400fe0:	f94033e2 	ldr	x2, [sp, #96]
  400fe4:	90000361 	adrp	x1, 46c000 <__tens+0x2eb0>
  400fe8:	d2800000 	mov	x0, #0x0                   	// #0
  400fec:	9121a021 	add	x1, x1, #0x868
  400ff0:	94002cee 	bl	40c3a8 <__fxprintf>
  400ff4:	b0000440 	adrp	x0, 489000 <_GLOBAL_OFFSET_TABLE_+0xb8>
  400ff8:	f942e400 	ldr	x0, [x0, #1480]
  400ffc:	94002e15 	bl	40c850 <_IO_fflush>
  401000:	90000440 	adrp	x0, 489000 <_GLOBAL_OFFSET_TABLE_+0xb8>
  401004:	b9405fe1 	ldr	w1, [sp, #92]
  401008:	d2800005 	mov	x5, #0x0                   	// #0
  40100c:	12800004 	mov	w4, #0xffffffff            	// #-1
  401010:	f9479c00 	ldr	x0, [x0, #3896]
  401014:	52800443 	mov	w3, #0x22                  	// #34
  401018:	52800062 	mov	w2, #0x3                   	// #3
  40101c:	0b000021 	add	w1, w1, w0
  401020:	4b0003e0 	neg	w0, w0
  401024:	0a000021 	and	w1, w1, w0
  401028:	d2800000 	mov	x0, #0x0                   	// #0
  40102c:	b9005fe1 	str	w1, [sp, #92]
  401030:	93407c21 	sxtw	x1, w1
  401034:	940077e7 	bl	41efd0 <__mmap64>
  401038:	aa0003f3 	mov	x19, x0
  40103c:	b100041f 	cmn	x0, #0x1
  401040:	54000180 	b.eq	401070 <__assert_fail_base+0x138>  // b.none
  401044:	b9405fe2 	ldr	w2, [sp, #92]
  401048:	f94033e1 	ldr	x1, [sp, #96]
  40104c:	b8004402 	str	w2, [x0], #4
  401050:	9400639c 	bl	419ec0 <strcpy>
  401054:	b0000441 	adrp	x1, 48a000 <_dl_main_map+0xc0>
  401058:	aa1303e0 	mov	x0, x19
  40105c:	913c4021 	add	x1, x1, #0xf10
  401060:	94012bdc 	bl	44bfd0 <__aarch64_swp8_acq>
  401064:	b4000060 	cbz	x0, 401070 <__assert_fail_base+0x138>
  401068:	b9400001 	ldr	w1, [x0]
  40106c:	940077f1 	bl	41f030 <__munmap>
  401070:	f94033e0 	ldr	x0, [sp, #96]
  401074:	94005ddf 	bl	4187f0 <__free>
  401078:	97fffcb2 	bl	400340 <abort>
  40107c:	90000281 	adrp	x1, 451000 <free_modules_db+0x18>
  401080:	912b8021 	add	x1, x1, #0xae0
  401084:	d2800242 	mov	x2, #0x12                  	// #18
  401088:	52800040 	mov	w0, #0x2                   	// #2
  40108c:	940074bb 	bl	41e378 <__libc_write>
  401090:	97fffcac 	bl	400340 <abort>
  401094:	d503201f 	nop

0000000000401098 <__assert_fail>:
  401098:	a9bd7bfd 	stp	x29, x30, [sp, #-48]!
  40109c:	910003fd 	mov	x29, sp
  4010a0:	a90153f3 	stp	x19, x20, [sp, #16]
  4010a4:	aa0003f3 	mov	x19, x0
  4010a8:	aa0103f4 	mov	x20, x1
  4010ac:	f0000300 	adrp	x0, 464000 <translit_from_idx+0x15f0>
  4010b0:	90000281 	adrp	x1, 451000 <free_modules_db+0x18>
  4010b4:	910fe000 	add	x0, x0, #0x3f8
  4010b8:	912ac021 	add	x1, x1, #0xab0
  4010bc:	a9025bf5 	stp	x21, x22, [sp, #32]
  4010c0:	aa0303f6 	mov	x22, x3
  4010c4:	2a0203f5 	mov	w21, w2
  4010c8:	528000a2 	mov	w2, #0x5                   	// #5
  4010cc:	94000007 	bl	4010e8 <__dcgettext>
  4010d0:	aa1603e4 	mov	x4, x22
  4010d4:	2a1503e3 	mov	w3, w21
  4010d8:	aa1403e2 	mov	x2, x20
  4010dc:	aa1303e1 	mov	x1, x19
  4010e0:	97ffff96 	bl	400f38 <__assert_fail_base>
  4010e4:	d503201f 	nop

00000000004010e8 <__dcgettext>:
  4010e8:	2a0203e5 	mov	w5, w2
  4010ec:	d2800004 	mov	x4, #0x0                   	// #0
  4010f0:	52800003 	mov	w3, #0x0                   	// #0
  4010f4:	d2800002 	mov	x2, #0x0                   	// #0
  4010f8:	140002e8 	b	401c98 <__dcigettext>
  4010fc:	d503201f 	nop

0000000000401100 <plural_eval>:
  401100:	a9bd7bfd 	stp	x29, x30, [sp, #-48]!
  401104:	910003fd 	mov	x29, sp
  401108:	a90153f3 	stp	x19, x20, [sp, #16]
  40110c:	aa0003f3 	mov	x19, x0
  401110:	aa0103f4 	mov	x20, x1
  401114:	f90013f5 	str	x21, [sp, #32]
  401118:	b9400260 	ldr	w0, [x19]
  40111c:	7100081f 	cmp	w0, #0x2
  401120:	54000380 	b.eq	401190 <plural_eval+0x90>  // b.none
  401124:	540001cc 	b.gt	40115c <plural_eval+0x5c>
  401128:	340006e0 	cbz	w0, 401204 <plural_eval+0x104>
  40112c:	7100041f 	cmp	w0, #0x1
  401130:	54000741 	b.ne	401218 <plural_eval+0x118>  // b.any
  401134:	f9400660 	ldr	x0, [x19, #8]
  401138:	aa1403e1 	mov	x1, x20
  40113c:	97fffff1 	bl	401100 <plural_eval>
  401140:	f100001f 	cmp	x0, #0x0
  401144:	9a9f17f5 	cset	x21, eq  // eq = none
  401148:	aa1503e0 	mov	x0, x21
  40114c:	a94153f3 	ldp	x19, x20, [sp, #16]
  401150:	f94013f5 	ldr	x21, [sp, #32]
  401154:	a8c37bfd 	ldp	x29, x30, [sp], #48
  401158:	d65f03c0 	ret
  40115c:	aa1403e1 	mov	x1, x20
  401160:	71000c1f 	cmp	w0, #0x3
  401164:	540005a1 	b.ne	401218 <plural_eval+0x118>  // b.any
  401168:	f9400660 	ldr	x0, [x19, #8]
  40116c:	97ffffe5 	bl	401100 <plural_eval>
  401170:	f100001f 	cmp	x0, #0x0
  401174:	1a9f17e0 	cset	w0, eq  // eq = none
  401178:	11000400 	add	w0, w0, #0x1
  40117c:	8b20ce73 	add	x19, x19, w0, sxtw #3
  401180:	f9400673 	ldr	x19, [x19, #8]
  401184:	b9400260 	ldr	w0, [x19]
  401188:	7100081f 	cmp	w0, #0x2
  40118c:	54fffcc1 	b.ne	401124 <plural_eval+0x24>  // b.any
  401190:	f9400660 	ldr	x0, [x19, #8]
  401194:	aa1403e1 	mov	x1, x20
  401198:	97ffffda 	bl	401100 <plural_eval>
  40119c:	aa0003f5 	mov	x21, x0
  4011a0:	b9400661 	ldr	w1, [x19, #4]
  4011a4:	71003c3f 	cmp	w1, #0xf
  4011a8:	54000480 	b.eq	401238 <plural_eval+0x138>  // b.none
  4011ac:	7100383f 	cmp	w1, #0xe
  4011b0:	540007a0 	b.eq	4012a4 <plural_eval+0x1a4>  // b.none
  4011b4:	f9400a60 	ldr	x0, [x19, #16]
  4011b8:	aa1403e1 	mov	x1, x20
  4011bc:	97ffffd1 	bl	401100 <plural_eval>
  4011c0:	b9400661 	ldr	w1, [x19, #4]
  4011c4:	aa0003f3 	mov	x19, x0
  4011c8:	7100203f 	cmp	w1, #0x8
  4011cc:	54000900 	b.eq	4012ec <plural_eval+0x1ec>  // b.none
  4011d0:	54000488 	b.hi	401260 <plural_eval+0x160>  // b.pmore
  4011d4:	7100143f 	cmp	w1, #0x5
  4011d8:	54000820 	b.eq	4012dc <plural_eval+0x1dc>  // b.none
  4011dc:	54000349 	b.ls	401244 <plural_eval+0x144>  // b.plast
  4011e0:	cb0002a0 	sub	x0, x21, x0
  4011e4:	7100183f 	cmp	w1, #0x6
  4011e8:	8b1302b5 	add	x21, x21, x19
  4011ec:	9a8002b5 	csel	x21, x21, x0, eq  // eq = none
  4011f0:	aa1503e0 	mov	x0, x21
  4011f4:	a94153f3 	ldp	x19, x20, [sp, #16]
  4011f8:	f94013f5 	ldr	x21, [sp, #32]
  4011fc:	a8c37bfd 	ldp	x29, x30, [sp], #48
  401200:	d65f03c0 	ret
  401204:	b9400660 	ldr	w0, [x19, #4]
  401208:	aa1403f5 	mov	x21, x20
  40120c:	34fff9e0 	cbz	w0, 401148 <plural_eval+0x48>
  401210:	7100041f 	cmp	w0, #0x1
  401214:	540000e0 	b.eq	401230 <plural_eval+0x130>  // b.none
  401218:	d2800015 	mov	x21, #0x0                   	// #0
  40121c:	aa1503e0 	mov	x0, x21
  401220:	a94153f3 	ldp	x19, x20, [sp, #16]
  401224:	f94013f5 	ldr	x21, [sp, #32]
  401228:	a8c37bfd 	ldp	x29, x30, [sp], #48
  40122c:	d65f03c0 	ret
  401230:	f9400675 	ldr	x21, [x19, #8]
  401234:	17ffffc5 	b	401148 <plural_eval+0x48>
  401238:	b4000380 	cbz	x0, 4012a8 <plural_eval+0x1a8>
  40123c:	d2800035 	mov	x21, #0x1                   	// #1
  401240:	17ffffc2 	b	401148 <plural_eval+0x48>
  401244:	71000c3f 	cmp	w1, #0x3
  401248:	54000580 	b.eq	4012f8 <plural_eval+0x1f8>  // b.none
  40124c:	7100103f 	cmp	w1, #0x4
  401250:	54fffe41 	b.ne	401218 <plural_eval+0x118>  // b.any
  401254:	b4000360 	cbz	x0, 4012c0 <plural_eval+0x1c0>
  401258:	9ad30ab5 	udiv	x21, x21, x19
  40125c:	17ffffbb 	b	401148 <plural_eval+0x48>
  401260:	71002c3f 	cmp	w1, #0xb
  401264:	54000360 	b.eq	4012d0 <plural_eval+0x1d0>  // b.none
  401268:	54000109 	b.ls	401288 <plural_eval+0x188>  // b.plast
  40126c:	7100303f 	cmp	w1, #0xc
  401270:	54000480 	b.eq	401300 <plural_eval+0x200>  // b.none
  401274:	7100343f 	cmp	w1, #0xd
  401278:	54fffd01 	b.ne	401218 <plural_eval+0x118>  // b.any
  40127c:	eb0002bf 	cmp	x21, x0
  401280:	9a9f07f5 	cset	x21, ne  // ne = any
  401284:	17ffffb1 	b	401148 <plural_eval+0x48>
  401288:	7100243f 	cmp	w1, #0x9
  40128c:	54000400 	b.eq	40130c <plural_eval+0x20c>  // b.none
  401290:	7100283f 	cmp	w1, #0xa
  401294:	54fffc21 	b.ne	401218 <plural_eval+0x118>  // b.any
  401298:	eb0002bf 	cmp	x21, x0
  40129c:	9a9f87f5 	cset	x21, ls  // ls = plast
  4012a0:	17ffffaa 	b	401148 <plural_eval+0x48>
  4012a4:	b4fff520 	cbz	x0, 401148 <plural_eval+0x48>
  4012a8:	f9400a60 	ldr	x0, [x19, #16]
  4012ac:	aa1403e1 	mov	x1, x20
  4012b0:	97ffff94 	bl	401100 <plural_eval>
  4012b4:	f100001f 	cmp	x0, #0x0
  4012b8:	9a9f07f5 	cset	x21, ne  // ne = any
  4012bc:	17ffffa3 	b	401148 <plural_eval+0x48>
  4012c0:	52800100 	mov	w0, #0x8                   	// #8
  4012c4:	94001001 	bl	4052c8 <raise>
  4012c8:	9ad30ab5 	udiv	x21, x21, x19
  4012cc:	17ffff9f 	b	401148 <plural_eval+0x48>
  4012d0:	eb0002bf 	cmp	x21, x0
  4012d4:	9a9f37f5 	cset	x21, cs  // cs = hs, nlast
  4012d8:	17ffff9c 	b	401148 <plural_eval+0x48>
  4012dc:	b40001e0 	cbz	x0, 401318 <plural_eval+0x218>
  4012e0:	9ad30aa0 	udiv	x0, x21, x19
  4012e4:	9b13d415 	msub	x21, x0, x19, x21
  4012e8:	17ffff98 	b	401148 <plural_eval+0x48>
  4012ec:	eb0002bf 	cmp	x21, x0
  4012f0:	9a9f27f5 	cset	x21, cc  // cc = lo, ul, last
  4012f4:	17ffff95 	b	401148 <plural_eval+0x48>
  4012f8:	9b007eb5 	mul	x21, x21, x0
  4012fc:	17ffff93 	b	401148 <plural_eval+0x48>
  401300:	eb0002bf 	cmp	x21, x0
  401304:	9a9f17f5 	cset	x21, eq  // eq = none
  401308:	17ffff90 	b	401148 <plural_eval+0x48>
  40130c:	eb0002bf 	cmp	x21, x0
  401310:	9a9f97f5 	cset	x21, hi  // hi = pmore
  401314:	17ffff8d 	b	401148 <plural_eval+0x48>
  401318:	52800100 	mov	w0, #0x8                   	// #8
  40131c:	94000feb 	bl	4052c8 <raise>
  401320:	17fffff0 	b	4012e0 <plural_eval+0x1e0>
  401324:	d503201f 	nop

0000000000401328 <transcmp>:
  401328:	a9be7bfd 	stp	x29, x30, [sp, #-32]!
  40132c:	910003fd 	mov	x29, sp
  401330:	a90153f3 	stp	x19, x20, [sp, #16]
  401334:	aa0003f4 	mov	x20, x0
  401338:	aa0103f3 	mov	x19, x1
  40133c:	f9401000 	ldr	x0, [x0, #32]
  401340:	b40002e0 	cbz	x0, 40139c <transcmp+0x74>
  401344:	9100e280 	add	x0, x20, #0x38
  401348:	f9401261 	ldr	x1, [x19, #32]
  40134c:	b4000241 	cbz	x1, 401394 <transcmp+0x6c>
  401350:	9100e261 	add	x1, x19, #0x38
  401354:	9400629b 	bl	419dc0 <strcmp>
  401358:	35000180 	cbnz	w0, 401388 <transcmp+0x60>
  40135c:	f9400261 	ldr	x1, [x19]
  401360:	f9400280 	ldr	x0, [x20]
  401364:	94006297 	bl	419dc0 <strcmp>
  401368:	35000100 	cbnz	w0, 401388 <transcmp+0x60>
  40136c:	f9400a61 	ldr	x1, [x19, #16]
  401370:	f9400a80 	ldr	x0, [x20, #16]
  401374:	94006293 	bl	419dc0 <strcmp>
  401378:	35000080 	cbnz	w0, 401388 <transcmp+0x60>
  40137c:	b9400a61 	ldr	w1, [x19, #8]
  401380:	b9400a80 	ldr	w0, [x20, #8]
  401384:	4b010000 	sub	w0, w0, w1
  401388:	a94153f3 	ldp	x19, x20, [sp, #16]
  40138c:	a8c27bfd 	ldp	x29, x30, [sp], #32
  401390:	d65f03c0 	ret
  401394:	f9401e61 	ldr	x1, [x19, #56]
  401398:	17ffffef 	b	401354 <transcmp+0x2c>
  40139c:	f9401e80 	ldr	x0, [x20, #56]
  4013a0:	17ffffea 	b	401348 <transcmp+0x20>
  4013a4:	d503201f 	nop

00000000004013a8 <plural_lookup.isra.0>:
  4013a8:	a9bd7bfd 	stp	x29, x30, [sp, #-48]!
  4013ac:	910003fd 	mov	x29, sp
  4013b0:	a90153f3 	stp	x19, x20, [sp, #16]
  4013b4:	aa0003f3 	mov	x19, x0
  4013b8:	aa0303f4 	mov	x20, x3
  4013bc:	f9405c00 	ldr	x0, [x0, #184]
  4013c0:	f90013f5 	str	x21, [sp, #32]
  4013c4:	aa0203f5 	mov	x21, x2
  4013c8:	97ffff4e 	bl	401100 <plural_eval>
  4013cc:	f9406261 	ldr	x1, [x19, #192]
  4013d0:	eb01001f 	cmp	x0, x1
  4013d4:	540001a2 	b.cs	401408 <plural_lookup.isra.0+0x60>  // b.hs, b.nlast
  4013d8:	aa0003f3 	mov	x19, x0
  4013dc:	8b1402b4 	add	x20, x21, x20
  4013e0:	aa1503e0 	mov	x0, x21
  4013e4:	d503201f 	nop
  4013e8:	d1000673 	sub	x19, x19, #0x1
  4013ec:	52800001 	mov	w1, #0x0                   	// #0
  4013f0:	b100067f 	cmn	x19, #0x1
  4013f4:	54000140 	b.eq	40141c <plural_lookup.isra.0+0x74>  // b.none
  4013f8:	9400685a 	bl	41b560 <__rawmemchr>
  4013fc:	91000400 	add	x0, x0, #0x1
  401400:	eb14001f 	cmp	x0, x20
  401404:	54ffff23 	b.cc	4013e8 <plural_lookup.isra.0+0x40>  // b.lo, b.ul, b.last
  401408:	aa1503e0 	mov	x0, x21
  40140c:	a94153f3 	ldp	x19, x20, [sp, #16]
  401410:	f94013f5 	ldr	x21, [sp, #32]
  401414:	a8c37bfd 	ldp	x29, x30, [sp], #48
  401418:	d65f03c0 	ret
  40141c:	aa0003f5 	mov	x21, x0
  401420:	17fffffa 	b	401408 <plural_lookup.isra.0+0x60>
  401424:	d503201f 	nop

0000000000401428 <_nl_find_msg>:
  401428:	a9b37bfd 	stp	x29, x30, [sp, #-208]!
  40142c:	910003fd 	mov	x29, sp
  401430:	a9025bf5 	stp	x21, x22, [sp, #32]
  401434:	f0000435 	adrp	x21, 488000 <__FRAME_END__+0xff7c>
  401438:	9126c2a5 	add	x5, x21, #0x9b0
  40143c:	f94000a7 	ldr	x7, [x5]
  401440:	f90067a7 	str	x7, [x29, #200]
  401444:	d2800007 	mov	x7, #0x0                   	// #0
  401448:	a90153f3 	stp	x19, x20, [sp, #16]
  40144c:	a90363f7 	stp	x23, x24, [sp, #48]
  401450:	aa0203f8 	mov	x24, x2
  401454:	a9046bf9 	stp	x25, x26, [sp, #64]
  401458:	a90573fb 	stp	x27, x28, [sp, #80]
  40145c:	d10043ff 	sub	sp, sp, #0x10
  401460:	a90693a1 	stp	x1, x4, [x29, #104]
  401464:	b9007ba3 	str	w3, [x29, #120]
  401468:	a90803a5 	stp	x5, x0, [x29, #128]
  40146c:	b9400805 	ldr	w5, [x0, #8]
  401470:	710000bf 	cmp	w5, #0x0
  401474:	540010cd 	b.le	40168c <_nl_find_msg+0x264>
  401478:	f94047a0 	ldr	x0, [x29, #136]
  40147c:	f9400817 	ldr	x23, [x0, #16]
  401480:	b4000d77 	cbz	x23, 40162c <_nl_find_msg+0x204>
  401484:	f94032e0 	ldr	x0, [x23, #96]
  401488:	b9402af3 	ldr	w19, [x23, #40]
  40148c:	b40009e0 	cbz	x0, 4015c8 <_nl_find_msg+0x1a0>
  401490:	aa1803e0 	mov	x0, x24
  401494:	97fffb9b 	bl	400300 <.plt+0x60>
  401498:	aa0003fa 	mov	x26, x0
  40149c:	aa1803e0 	mov	x0, x24
  4014a0:	94000f44 	bl	4051b0 <__hash_string>
  4014a4:	b9406af4 	ldr	w20, [x23, #104]
  4014a8:	b9405ae3 	ldr	w3, [x23, #88]
  4014ac:	92407f42 	and	x2, x26, #0xffffffff
  4014b0:	f9004ba2 	str	x2, [x29, #144]
  4014b4:	51000861 	sub	w1, w3, #0x2
  4014b8:	b9009bba 	str	w26, [x29, #152]
  4014bc:	f94032f5 	ldr	x21, [x23, #96]
  4014c0:	1ac10804 	udiv	w4, w0, w1
  4014c4:	1ac30802 	udiv	w2, w0, w3
  4014c8:	1b018084 	msub	w4, w4, w1, w0
  4014cc:	11000499 	add	w25, w4, #0x1
  4014d0:	1b03805a 	msub	w26, w2, w3, w0
  4014d4:	4b19007b 	sub	w27, w3, w25
  4014d8:	4b030336 	sub	w22, w25, w3
  4014dc:	14000016 	b	401534 <_nl_find_msg+0x10c>
  4014e0:	b9401aea 	ldr	w10, [x23, #24]
  4014e4:	d37d7f80 	ubfiz	x0, x28, #3, #32
  4014e8:	f9401ae1 	ldr	x1, [x23, #48]
  4014ec:	8b00002b 	add	x11, x1, x0
  4014f0:	b8606820 	ldr	w0, [x1, x0]
  4014f4:	34000c0a 	cbz	w10, 401674 <_nl_find_msg+0x24c>
  4014f8:	b9409ba1 	ldr	w1, [x29, #152]
  4014fc:	5ac00800 	rev	w0, w0
  401500:	6b00003f 	cmp	w1, w0
  401504:	54000108 	b.hi	401524 <_nl_find_msg+0xfc>  // b.pmore
  401508:	b9400560 	ldr	w0, [x11, #4]
  40150c:	f94002e1 	ldr	x1, [x23]
  401510:	5ac00800 	rev	w0, w0
  401514:	8b000021 	add	x1, x1, x0
  401518:	aa1803e0 	mov	x0, x24
  40151c:	94006229 	bl	419dc0 <strcmp>
  401520:	34000320 	cbz	w0, 401584 <_nl_find_msg+0x15c>
  401524:	6b1a037f 	cmp	w27, w26
  401528:	0b160340 	add	w0, w26, w22
  40152c:	0b190342 	add	w2, w26, w25
  401530:	1a80805a 	csel	w26, w2, w0, hi  // hi = pmore
  401534:	b87a5aa1 	ldr	w1, [x21, w26, uxtw #2]
  401538:	7100029f 	cmp	w20, #0x0
  40153c:	5ac00820 	rev	w0, w1
  401540:	1a811001 	csel	w1, w0, w1, ne  // ne = any
  401544:	34000741 	cbz	w1, 40162c <_nl_find_msg+0x204>
  401548:	5100043c 	sub	w28, w1, #0x1
  40154c:	6b1c027f 	cmp	w19, w28
  401550:	54fffc88 	b.hi	4014e0 <_nl_find_msg+0xb8>  // b.pmore
  401554:	4b130380 	sub	w0, w28, w19
  401558:	f94026e1 	ldr	x1, [x23, #72]
  40155c:	d37cec00 	lsl	x0, x0, #4
  401560:	8b000026 	add	x6, x1, x0
  401564:	f8606820 	ldr	x0, [x1, x0]
  401568:	f9404ba1 	ldr	x1, [x29, #144]
  40156c:	eb01001f 	cmp	x0, x1
  401570:	54fffda9 	b.ls	401524 <_nl_find_msg+0xfc>  // b.plast
  401574:	f94004c1 	ldr	x1, [x6, #8]
  401578:	aa1803e0 	mov	x0, x24
  40157c:	94006211 	bl	419dc0 <strcmp>
  401580:	35fffd20 	cbnz	w0, 401524 <_nl_find_msg+0xfc>
  401584:	aa1c03f6 	mov	x22, x28
  401588:	2a1303fa 	mov	w26, w19
  40158c:	eb16035f 	cmp	x26, x22
  401590:	54000828 	b.hi	401694 <_nl_find_msg+0x26c>  // b.pmore
  401594:	cb1a02da 	sub	x26, x22, x26
  401598:	f9402ae0 	ldr	x0, [x23, #80]
  40159c:	d37cef5a 	lsl	x26, x26, #4
  4015a0:	8b1a0001 	add	x1, x0, x26
  4015a4:	f87a6800 	ldr	x0, [x0, x26]
  4015a8:	f9004fa0 	str	x0, [x29, #152]
  4015ac:	f9400438 	ldr	x24, [x1, #8]
  4015b0:	b9407ba0 	ldr	w0, [x29, #120]
  4015b4:	350008c0 	cbnz	w0, 4016cc <_nl_find_msg+0x2a4>
  4015b8:	f9403ba0 	ldr	x0, [x29, #112]
  4015bc:	f9404fa1 	ldr	x1, [x29, #152]
  4015c0:	f9000001 	str	x1, [x0]
  4015c4:	1400001b 	b	401630 <_nl_find_msg+0x208>
  4015c8:	2a1303fa 	mov	w26, w19
  4015cc:	d280001b 	mov	x27, #0x0                   	// #0
  4015d0:	aa1a03fc 	mov	x28, x26
  4015d4:	d503201f 	nop
  4015d8:	eb1b039f 	cmp	x28, x27
  4015dc:	54000289 	b.ls	40162c <_nl_find_msg+0x204>  // b.plast
  4015e0:	8b1b0386 	add	x6, x28, x27
  4015e4:	b9401ae0 	ldr	w0, [x23, #24]
  4015e8:	f9401ae2 	ldr	x2, [x23, #48]
  4015ec:	d341fcd6 	lsr	x22, x6, #1
  4015f0:	7100001f 	cmp	w0, #0x0
  4015f4:	aa1803e0 	mov	x0, x24
  4015f8:	f94002e1 	ldr	x1, [x23]
  4015fc:	8b160c42 	add	x2, x2, x22, lsl #3
  401600:	b9400442 	ldr	w2, [x2, #4]
  401604:	5ac00843 	rev	w3, w2
  401608:	1a830042 	csel	w2, w2, w3, eq  // eq = none
  40160c:	8b020021 	add	x1, x1, x2
  401610:	940061ec 	bl	419dc0 <strcmp>
  401614:	7100001f 	cmp	w0, #0x0
  401618:	540002ab 	b.lt	40166c <_nl_find_msg+0x244>  // b.tstop
  40161c:	54fffb80 	b.eq	40158c <_nl_find_msg+0x164>  // b.none
  401620:	910006db 	add	x27, x22, #0x1
  401624:	eb1b039f 	cmp	x28, x27
  401628:	54fffdc8 	b.hi	4015e0 <_nl_find_msg+0x1b8>  // b.pmore
  40162c:	d2800018 	mov	x24, #0x0                   	// #0
  401630:	f94043a0 	ldr	x0, [x29, #128]
  401634:	f94067a1 	ldr	x1, [x29, #200]
  401638:	f9400002 	ldr	x2, [x0]
  40163c:	eb020021 	subs	x1, x1, x2
  401640:	d2800002 	mov	x2, #0x0                   	// #0
  401644:	54003121 	b.ne	401c68 <_nl_find_msg+0x840>  // b.any
  401648:	910003bf 	mov	sp, x29
  40164c:	aa1803e0 	mov	x0, x24
  401650:	a94153f3 	ldp	x19, x20, [sp, #16]
  401654:	a9425bf5 	ldp	x21, x22, [sp, #32]
  401658:	a94363f7 	ldp	x23, x24, [sp, #48]
  40165c:	a9446bf9 	ldp	x25, x26, [sp, #64]
  401660:	a94573fb 	ldp	x27, x28, [sp, #80]
  401664:	a8cd7bfd 	ldp	x29, x30, [sp], #208
  401668:	d65f03c0 	ret
  40166c:	aa1603fc 	mov	x28, x22
  401670:	17ffffda 	b	4015d8 <_nl_find_msg+0x1b0>
  401674:	b9409ba1 	ldr	w1, [x29, #152]
  401678:	6b00003f 	cmp	w1, w0
  40167c:	54fff548 	b.hi	401524 <_nl_find_msg+0xfc>  // b.pmore
  401680:	b9400560 	ldr	w0, [x11, #4]
  401684:	f94002e1 	ldr	x1, [x23]
  401688:	17ffffa3 	b	401514 <_nl_find_msg+0xec>
  40168c:	940003f9 	bl	402670 <_nl_load_domain>
  401690:	17ffff7a 	b	401478 <_nl_find_msg+0x50>
  401694:	f9401ee1 	ldr	x1, [x23, #56]
  401698:	d37df2c0 	lsl	x0, x22, #3
  40169c:	b9401ae2 	ldr	w2, [x23, #24]
  4016a0:	8b000023 	add	x3, x1, x0
  4016a4:	b860683b 	ldr	w27, [x1, x0]
  4016a8:	f94002f8 	ldr	x24, [x23]
  4016ac:	b9400460 	ldr	w0, [x3, #4]
  4016b0:	34000782 	cbz	w2, 4017a0 <_nl_find_msg+0x378>
  4016b4:	5ac00800 	rev	w0, w0
  4016b8:	5ac00b7b 	rev	w27, w27
  4016bc:	8b000318 	add	x24, x24, x0
  4016c0:	11000760 	add	w0, w27, #0x1
  4016c4:	f9004fa0 	str	x0, [x29, #152]
  4016c8:	17ffffba 	b	4015b0 <_nl_find_msg+0x188>
  4016cc:	f94037a0 	ldr	x0, [x29, #104]
  4016d0:	b40004e0 	cbz	x0, 40176c <_nl_find_msg+0x344>
  4016d4:	f9400819 	ldr	x25, [x0, #16]
  4016d8:	b40004b9 	cbz	x25, 40176c <_nl_find_msg+0x344>
  4016dc:	90000280 	adrp	x0, 451000 <free_modules_db+0x18>
  4016e0:	f945b800 	ldr	x0, [x0, #2928]
  4016e4:	b4000060 	cbz	x0, 4016f0 <_nl_find_msg+0x2c8>
  4016e8:	910202e0 	add	x0, x23, #0x80
  4016ec:	d503201f 	nop
  4016f0:	f9403efb 	ldr	x27, [x23, #120]
  4016f4:	8b1b077c 	add	x28, x27, x27, lsl #1
  4016f8:	d37df39c 	lsl	x28, x28, #3
  4016fc:	d100639c 	sub	x28, x28, #0x18
  401700:	b400059b 	cbz	x27, 4017b0 <_nl_find_msg+0x388>
  401704:	f9403ae0 	ldr	x0, [x23, #112]
  401708:	d100077b 	sub	x27, x27, #0x1
  40170c:	aa1903e1 	mov	x1, x25
  401710:	8b1c001a 	add	x26, x0, x28
  401714:	f87c6800 	ldr	x0, [x0, x28]
  401718:	d100639c 	sub	x28, x28, #0x18
  40171c:	940061a9 	bl	419dc0 <strcmp>
  401720:	35ffff00 	cbnz	w0, 401700 <_nl_find_msg+0x2d8>
  401724:	90000280 	adrp	x0, 451000 <free_modules_db+0x18>
  401728:	f945c000 	ldr	x0, [x0, #2944]
  40172c:	b4000060 	cbz	x0, 401738 <_nl_find_msg+0x310>
  401730:	910202e0 	add	x0, x23, #0x80
  401734:	d503201f 	nop
  401738:	f9400740 	ldr	x0, [x26, #8]
  40173c:	b100041f 	cmn	x0, #0x1
  401740:	54fff3c0 	b.eq	4015b8 <_nl_find_msg+0x190>  // b.none
  401744:	f9400b40 	ldr	x0, [x26, #16]
  401748:	b4001dc0 	cbz	x0, 401b00 <_nl_find_msg+0x6d8>
  40174c:	b100041f 	cmn	x0, #0x1
  401750:	54001d40 	b.eq	401af8 <_nl_find_msg+0x6d0>  // b.none
  401754:	f8767800 	ldr	x0, [x0, x22, lsl #3]
  401758:	b4000960 	cbz	x0, 401884 <_nl_find_msg+0x45c>
  40175c:	aa0003f8 	mov	x24, x0
  401760:	f8408700 	ldr	x0, [x24], #8
  401764:	f9004fa0 	str	x0, [x29, #152]
  401768:	17ffff94 	b	4015b8 <_nl_find_msg+0x190>
  40176c:	b000045c 	adrp	x28, 48a000 <_dl_main_map+0xc0>
  401770:	9137439c 	add	x28, x28, #0xdd0
  401774:	b9401380 	ldr	w0, [x28, #16]
  401778:	34000580 	cbz	w0, 401828 <_nl_find_msg+0x400>
  40177c:	f9400f99 	ldr	x25, [x28, #24]
  401780:	b5fffaf9 	cbnz	x25, 4016dc <_nl_find_msg+0x2b4>
  401784:	f0000420 	adrp	x0, 488000 <__FRAME_END__+0xff7c>
  401788:	f947c400 	ldr	x0, [x0, #3976]
  40178c:	d53bd041 	mrs	x1, tpidr_el0
  401790:	f8606820 	ldr	x0, [x1, x0]
  401794:	f9400000 	ldr	x0, [x0]
  401798:	f9405819 	ldr	x25, [x0, #176]
  40179c:	17ffffd0 	b	4016dc <_nl_find_msg+0x2b4>
  4017a0:	8b204318 	add	x24, x24, w0, uxtw
  4017a4:	11000760 	add	w0, w27, #0x1
  4017a8:	f9004fa0 	str	x0, [x29, #152]
  4017ac:	17ffff81 	b	4015b0 <_nl_find_msg+0x188>
  4017b0:	90000280 	adrp	x0, 451000 <free_modules_db+0x18>
  4017b4:	f945c000 	ldr	x0, [x0, #2944]
  4017b8:	aa0003fb 	mov	x27, x0
  4017bc:	b4000060 	cbz	x0, 4017c8 <_nl_find_msg+0x3a0>
  4017c0:	910202e0 	add	x0, x23, #0x80
  4017c4:	d503201f 	nop
  4017c8:	90000280 	adrp	x0, 451000 <free_modules_db+0x18>
  4017cc:	f945bc00 	ldr	x0, [x0, #2936]
  4017d0:	b4000060 	cbz	x0, 4017dc <_nl_find_msg+0x3b4>
  4017d4:	910202e0 	add	x0, x23, #0x80
  4017d8:	d503201f 	nop
  4017dc:	a9470ae0 	ldp	x0, x2, [x23, #112]
  4017e0:	8b02045c 	add	x28, x2, x2, lsl #1
  4017e4:	aa0003f5 	mov	x21, x0
  4017e8:	d37df394 	lsl	x20, x28, #3
  4017ec:	d1006283 	sub	x3, x20, #0x18
  4017f0:	8b03001c 	add	x28, x0, x3
  4017f4:	d503201f 	nop
  4017f8:	b4000bc2 	cbz	x2, 401970 <_nl_find_msg+0x548>
  4017fc:	aa1c03fa 	mov	x26, x28
  401800:	d1000442 	sub	x2, x2, #0x1
  401804:	f85e8780 	ldr	x0, [x28], #-24
  401808:	aa1903e1 	mov	x1, x25
  40180c:	f9003fa2 	str	x2, [x29, #120]
  401810:	f9004ba2 	str	x2, [x29, #144]
  401814:	9400616b 	bl	419dc0 <strcmp>
  401818:	f9404ba2 	ldr	x2, [x29, #144]
  40181c:	35fffee0 	cbnz	w0, 4017f8 <_nl_find_msg+0x3d0>
  401820:	b5fff89b 	cbnz	x27, 401730 <_nl_find_msg+0x308>
  401824:	17ffffc5 	b	401738 <_nl_find_msg+0x310>
  401828:	90000280 	adrp	x0, 451000 <free_modules_db+0x18>
  40182c:	912c0000 	add	x0, x0, #0xb00
  401830:	940010ac 	bl	405ae0 <getenv>
  401834:	aa0003fa 	mov	x26, x0
  401838:	b4000060 	cbz	x0, 401844 <_nl_find_msg+0x41c>
  40183c:	39400001 	ldrb	w1, [x0]
  401840:	350000c1 	cbnz	w1, 401858 <_nl_find_msg+0x430>
  401844:	f9400f99 	ldr	x25, [x28, #24]
  401848:	52800020 	mov	w0, #0x1                   	// #1
  40184c:	b9001380 	str	w0, [x28, #16]
  401850:	b5fff479 	cbnz	x25, 4016dc <_nl_find_msg+0x2b4>
  401854:	17ffffcc 	b	401784 <_nl_find_msg+0x35c>
  401858:	97fffaaa 	bl	400300 <.plt+0x60>
  40185c:	9100041b 	add	x27, x0, #0x1
  401860:	aa1b03e0 	mov	x0, x27
  401864:	94005a71 	bl	418228 <__libc_malloc>
  401868:	aa0003f9 	mov	x25, x0
  40186c:	b4000080 	cbz	x0, 40187c <_nl_find_msg+0x454>
  401870:	aa1b03e2 	mov	x2, x27
  401874:	aa1a03e1 	mov	x1, x26
  401878:	97fffa8e 	bl	4002b0 <.plt+0x10>
  40187c:	f9000f99 	str	x25, [x28, #24]
  401880:	17fffff2 	b	401848 <_nl_find_msg+0x420>
  401884:	b000045c 	adrp	x28, 48a000 <_dl_main_map+0xc0>
  401888:	9137439c 	add	x28, x28, #0xdd0
  40188c:	91008393 	add	x19, x28, #0x20
  401890:	52800021 	mov	w1, #0x1                   	// #1
  401894:	aa1303e2 	mov	x2, x19
  401898:	94012986 	bl	44beb0 <__aarch64_cas4_acq>
  40189c:	35001c60 	cbnz	w0, 401c28 <_nl_find_msg+0x800>
  4018a0:	a9428780 	ldp	x0, x1, [x28, #40]
  4018a4:	52800017 	mov	w23, #0x0                   	// #0
  4018a8:	d281fe14 	mov	x20, #0xff0                 	// #4080
  4018ac:	91002000 	add	x0, x0, #0x8
  4018b0:	a90a03b8 	stp	x24, x0, [x29, #160]
  4018b4:	d503201f 	nop
  4018b8:	f1001c3f 	cmp	x1, #0x7
  4018bc:	54000209 	b.ls	4018fc <_nl_find_msg+0x4d4>  // b.plast
  4018c0:	d1002024 	sub	x4, x1, #0x8
  4018c4:	9102c3a5 	add	x5, x29, #0xb0
  4018c8:	a9498ba1 	ldp	x1, x2, [x29, #152]
  4018cc:	9102a3a3 	add	x3, x29, #0xa8
  4018d0:	f9400740 	ldr	x0, [x26, #8]
  4018d4:	f94057a7 	ldr	x7, [x29, #168]
  4018d8:	8b010042 	add	x2, x2, x1
  4018dc:	910283a1 	add	x1, x29, #0xa0
  4018e0:	8b0400e4 	add	x4, x7, x4
  4018e4:	94008211 	bl	422128 <__gconv>
  4018e8:	721d781f 	tst	w0, #0xfffffffb
  4018ec:	54001600 	b.eq	401bac <_nl_find_msg+0x784>  // b.none
  4018f0:	7100141f 	cmp	w0, #0x5
  4018f4:	540014a1 	b.ne	401b88 <_nl_find_msg+0x760>  // b.any
  4018f8:	f90053b8 	str	x24, [x29, #160]
  4018fc:	34000277 	cbz	w23, 401948 <_nl_find_msg+0x520>
  401900:	110006f7 	add	w23, w23, #0x1
  401904:	f9400799 	ldr	x25, [x28, #8]
  401908:	53185ee1 	lsl	w1, w23, #8
  40190c:	4b170021 	sub	w1, w1, w23
  401910:	aa1903e0 	mov	x0, x25
  401914:	531c6c21 	lsl	w1, w1, #4
  401918:	93407c33 	sxtw	x19, w1
  40191c:	f9001b93 	str	x19, [x28, #48]
  401920:	aa1303e1 	mov	x1, x19
  401924:	94005c3f 	bl	418a20 <__libc_realloc>
  401928:	b4000c20 	cbz	x0, 401aac <_nl_find_msg+0x684>
  40192c:	d1002261 	sub	x1, x19, #0x8
  401930:	f9000780 	str	x0, [x28, #8]
  401934:	91002002 	add	x2, x0, #0x8
  401938:	91004000 	add	x0, x0, #0x10
  40193c:	a9028782 	stp	x2, x1, [x28, #40]
  401940:	f90057a0 	str	x0, [x29, #168]
  401944:	17ffffdd 	b	4018b8 <_nl_find_msg+0x490>
  401948:	d281fe00 	mov	x0, #0xff0                 	// #4080
  40194c:	f9001b94 	str	x20, [x28, #48]
  401950:	94005a36 	bl	418228 <__libc_malloc>
  401954:	b4000b40 	cbz	x0, 401abc <_nl_find_msg+0x694>
  401958:	f9400782 	ldr	x2, [x28, #8]
  40195c:	d281fd01 	mov	x1, #0xfe8                 	// #4072
  401960:	52800037 	mov	w23, #0x1                   	// #1
  401964:	f9000002 	str	x2, [x0]
  401968:	f9000780 	str	x0, [x28, #8]
  40196c:	17fffff2 	b	401934 <_nl_find_msg+0x50c>
  401970:	91006281 	add	x1, x20, #0x18
  401974:	aa1503e0 	mov	x0, x21
  401978:	b4000f75 	cbz	x21, 401b64 <_nl_find_msg+0x73c>
  40197c:	94005c29 	bl	418a20 <__libc_realloc>
  401980:	aa0003e1 	mov	x1, x0
  401984:	b4000f81 	cbz	x1, 401b74 <_nl_find_msg+0x74c>
  401988:	f9003ae1 	str	x1, [x23, #112]
  40198c:	aa1903e0 	mov	x0, x25
  401990:	f9004ba1 	str	x1, [x29, #144]
  401994:	94006205 	bl	41a1a8 <__strdup>
  401998:	aa0003f9 	mov	x25, x0
  40199c:	b4000ec0 	cbz	x0, 401b74 <_nl_find_msg+0x74c>
  4019a0:	a94887a0 	ldp	x0, x1, [x29, #136]
  4019a4:	92800003 	mov	x3, #0xffffffffffffffff    	// #-1
  4019a8:	9102a3a4 	add	x4, x29, #0xa8
  4019ac:	b0000282 	adrp	x2, 452000 <sigall_set+0x68>
  4019b0:	91062042 	add	x2, x2, #0x188
  4019b4:	8b14003a 	add	x26, x1, x20
  4019b8:	f8346839 	str	x25, [x1, x20]
  4019bc:	f94037a1 	ldr	x1, [x29, #104]
  4019c0:	f9000743 	str	x3, [x26, #8]
  4019c4:	52800003 	mov	w3, #0x0                   	// #0
  4019c8:	97fffe98 	bl	401428 <_nl_find_msg>
  4019cc:	aa0003e1 	mov	x1, x0
  4019d0:	b100041f 	cmn	x0, #0x1
  4019d4:	54001400 	b.eq	401c54 <_nl_find_msg+0x82c>  // b.none
  4019d8:	b40005e0 	cbz	x0, 401a94 <_nl_find_msg+0x66c>
  4019dc:	90000281 	adrp	x1, 451000 <free_modules_db+0x18>
  4019e0:	912c4021 	add	x1, x1, #0xb10
  4019e4:	94006471 	bl	41aba8 <strstr>
  4019e8:	b4000560 	cbz	x0, 401a94 <_nl_find_msg+0x66c>
  4019ec:	91002014 	add	x20, x0, #0x8
  4019f0:	90000281 	adrp	x1, 451000 <free_modules_db+0x18>
  4019f4:	aa1403e0 	mov	x0, x20
  4019f8:	912c8021 	add	x1, x1, #0xb20
  4019fc:	94006193 	bl	41a048 <strcspn>
  401a00:	aa0003e2 	mov	x2, x0
  401a04:	91004000 	add	x0, x0, #0x10
  401a08:	9270bc01 	and	x1, x0, #0xffffffffffff0000
  401a0c:	927cec00 	and	x0, x0, #0xfffffffffffffff0
  401a10:	cb2163e1 	sub	x1, sp, x1
  401a14:	eb2163ff 	cmp	sp, x1
  401a18:	540000a0 	b.eq	401a2c <_nl_find_msg+0x604>  // b.none
  401a1c:	d14043ff 	sub	sp, sp, #0x10, lsl #12
  401a20:	eb2163ff 	cmp	sp, x1
  401a24:	f90203ff 	str	xzr, [sp, #1024]
  401a28:	54ffffa1 	b.ne	401a1c <_nl_find_msg+0x5f4>  // b.any
  401a2c:	92403c00 	and	x0, x0, #0xffff
  401a30:	cb2063ff 	sub	sp, sp, x0
  401a34:	f110001f 	cmp	x0, #0x400
  401a38:	f90003ff 	str	xzr, [sp]
  401a3c:	54000043 	b.cc	401a44 <_nl_find_msg+0x61c>  // b.lo, b.ul, b.last
  401a40:	f90203ff 	str	xzr, [sp, #1024]
  401a44:	910043f5 	add	x21, sp, #0x10
  401a48:	aa1403e1 	mov	x1, x20
  401a4c:	aa1503e0 	mov	x0, x21
  401a50:	940065e4 	bl	41b1e0 <__mempcpy>
  401a54:	aa0003e3 	mov	x3, x0
  401a58:	aa1503e1 	mov	x1, x21
  401a5c:	aa1903e2 	mov	x2, x25
  401a60:	9102c3a0 	add	x0, x29, #0xb0
  401a64:	3900007f 	strb	wzr, [x3]
  401a68:	9400a4dc 	bl	42add8 <__gconv_create_spec>
  401a6c:	52800023 	mov	w3, #0x1                   	// #1
  401a70:	91002341 	add	x1, x26, #0x8
  401a74:	52800022 	mov	w2, #0x1                   	// #1
  401a78:	9102c3a0 	add	x0, x29, #0xb0
  401a7c:	390303a3 	strb	w3, [x29, #192]
  401a80:	940080c2 	bl	421d88 <__gconv_open>
  401a84:	2a0003f4 	mov	w20, w0
  401a88:	9102c3a0 	add	x0, x29, #0xb0
  401a8c:	9400a58f 	bl	42b0c8 <__gconv_destroy_spec>
  401a90:	35000d34 	cbnz	w20, 401c34 <_nl_find_msg+0x80c>
  401a94:	f9403ee0 	ldr	x0, [x23, #120]
  401a98:	f9000b5f 	str	xzr, [x26, #16]
  401a9c:	91000400 	add	x0, x0, #0x1
  401aa0:	f9003ee0 	str	x0, [x23, #120]
  401aa4:	b5ffe47b 	cbnz	x27, 401730 <_nl_find_msg+0x308>
  401aa8:	17ffff24 	b	401738 <_nl_find_msg+0x310>
  401aac:	f9400321 	ldr	x1, [x25]
  401ab0:	aa1903e0 	mov	x0, x25
  401ab4:	f9000781 	str	x1, [x28, #8]
  401ab8:	94005b4e 	bl	4187f0 <__free>
  401abc:	a902ff9f 	stp	xzr, xzr, [x28, #40]
  401ac0:	91008393 	add	x19, x28, #0x20
  401ac4:	aa1303e1 	mov	x1, x19
  401ac8:	52800000 	mov	w0, #0x0                   	// #0
  401acc:	92800018 	mov	x24, #0xffffffffffffffff    	// #-1
  401ad0:	94012958 	bl	44c030 <__aarch64_swp4_rel>
  401ad4:	7100041f 	cmp	w0, #0x1
  401ad8:	54ffdacd 	b.le	401630 <_nl_find_msg+0x208>
  401adc:	aa1303e0 	mov	x0, x19
  401ae0:	d2801021 	mov	x1, #0x81                  	// #129
  401ae4:	d2800022 	mov	x2, #0x1                   	// #1
  401ae8:	d2800003 	mov	x3, #0x0                   	// #0
  401aec:	d2800c48 	mov	x8, #0x62                  	// #98
  401af0:	d4000001 	svc	#0x0
  401af4:	17fffecf 	b	401630 <_nl_find_msg+0x208>
  401af8:	92800018 	mov	x24, #0xffffffffffffffff    	// #-1
  401afc:	17fffecd 	b	401630 <_nl_find_msg+0x208>
  401b00:	b000045c 	adrp	x28, 48a000 <_dl_main_map+0xc0>
  401b04:	9137439c 	add	x28, x28, #0xdd0
  401b08:	91008394 	add	x20, x28, #0x20
  401b0c:	52800021 	mov	w1, #0x1                   	// #1
  401b10:	aa1403e2 	mov	x2, x20
  401b14:	940128e7 	bl	44beb0 <__aarch64_cas4_acq>
  401b18:	35000a20 	cbnz	w0, 401c5c <_nl_find_msg+0x834>
  401b1c:	f9400b40 	ldr	x0, [x26, #16]
  401b20:	b4000720 	cbz	x0, 401c04 <_nl_find_msg+0x7dc>
  401b24:	9100839c 	add	x28, x28, #0x20
  401b28:	52800000 	mov	w0, #0x0                   	// #0
  401b2c:	aa1c03e1 	mov	x1, x28
  401b30:	94012940 	bl	44c030 <__aarch64_swp4_rel>
  401b34:	7100041f 	cmp	w0, #0x1
  401b38:	5400006c 	b.gt	401b44 <_nl_find_msg+0x71c>
  401b3c:	f9400b40 	ldr	x0, [x26, #16]
  401b40:	17ffff03 	b	40174c <_nl_find_msg+0x324>
  401b44:	aa1c03e0 	mov	x0, x28
  401b48:	d2801021 	mov	x1, #0x81                  	// #129
  401b4c:	d2800022 	mov	x2, #0x1                   	// #1
  401b50:	d2800003 	mov	x3, #0x0                   	// #0
  401b54:	d2800c48 	mov	x8, #0x62                  	// #98
  401b58:	d4000001 	svc	#0x0
  401b5c:	f9400b40 	ldr	x0, [x26, #16]
  401b60:	17fffefb 	b	40174c <_nl_find_msg+0x324>
  401b64:	aa0103e0 	mov	x0, x1
  401b68:	940059b0 	bl	418228 <__libc_malloc>
  401b6c:	aa0003e1 	mov	x1, x0
  401b70:	17ffff85 	b	401984 <_nl_find_msg+0x55c>
  401b74:	b4fffc3b 	cbz	x27, 401af8 <_nl_find_msg+0x6d0>
  401b78:	910202e0 	add	x0, x23, #0x80
  401b7c:	92800018 	mov	x24, #0xffffffffffffffff    	// #-1
  401b80:	d503201f 	nop
  401b84:	17fffeab 	b	401630 <_nl_find_msg+0x208>
  401b88:	9100839c 	add	x28, x28, #0x20
  401b8c:	52800000 	mov	w0, #0x0                   	// #0
  401b90:	aa1c03e1 	mov	x1, x28
  401b94:	d2800018 	mov	x24, #0x0                   	// #0
  401b98:	94012926 	bl	44c030 <__aarch64_swp4_rel>
  401b9c:	7100041f 	cmp	w0, #0x1
  401ba0:	54ffd48d 	b.le	401630 <_nl_find_msg+0x208>
  401ba4:	aa1c03e0 	mov	x0, x28
  401ba8:	17ffffce 	b	401ae0 <_nl_find_msg+0x6b8>
  401bac:	a9428384 	ldp	x4, x0, [x28, #40]
  401bb0:	91008393 	add	x19, x28, #0x20
  401bb4:	f94057a2 	ldr	x2, [x29, #168]
  401bb8:	aa1303e1 	mov	x1, x19
  401bbc:	f9400b45 	ldr	x5, [x26, #16]
  401bc0:	cb040043 	sub	x3, x2, x4
  401bc4:	cb030000 	sub	x0, x0, x3
  401bc8:	d1002063 	sub	x3, x3, #0x8
  401bcc:	92400807 	and	x7, x0, #0x7
  401bd0:	f9000083 	str	x3, [x4]
  401bd4:	8b070043 	add	x3, x2, x7
  401bd8:	927df002 	and	x2, x0, #0xfffffffffffffff8
  401bdc:	f83678a4 	str	x4, [x5, x22, lsl #3]
  401be0:	52800000 	mov	w0, #0x0                   	// #0
  401be4:	a9028b83 	stp	x3, x2, [x28, #40]
  401be8:	d37df2d6 	lsl	x22, x22, #3
  401bec:	94012911 	bl	44c030 <__aarch64_swp4_rel>
  401bf0:	7100041f 	cmp	w0, #0x1
  401bf4:	540003cc 	b.gt	401c6c <_nl_find_msg+0x844>
  401bf8:	f9400b40 	ldr	x0, [x26, #16]
  401bfc:	f8766800 	ldr	x0, [x0, x22]
  401c00:	17fffed7 	b	40175c <_nl_find_msg+0x334>
  401c04:	b94042e0 	ldr	w0, [x23, #64]
  401c08:	d2800101 	mov	x1, #0x8                   	// #8
  401c0c:	0b000260 	add	w0, w19, w0
  401c10:	94005ca2 	bl	418e98 <__calloc>
  401c14:	f9000b40 	str	x0, [x26, #16]
  401c18:	b5ffe440 	cbnz	x0, 4018a0 <_nl_find_msg+0x478>
  401c1c:	92800000 	mov	x0, #0xffffffffffffffff    	// #-1
  401c20:	f9000b40 	str	x0, [x26, #16]
  401c24:	17ffffc0 	b	401b24 <_nl_find_msg+0x6fc>
  401c28:	aa1303e0 	mov	x0, x19
  401c2c:	94004837 	bl	413d08 <__lll_lock_wait_private>
  401c30:	17ffff1c 	b	4018a0 <_nl_find_msg+0x478>
  401c34:	3100069f 	cmn	w20, #0x1
  401c38:	54000280 	b.eq	401c88 <_nl_find_msg+0x860>  // b.none
  401c3c:	b400007b 	cbz	x27, 401c48 <_nl_find_msg+0x820>
  401c40:	910202e0 	add	x0, x23, #0x80
  401c44:	d503201f 	nop
  401c48:	aa1903e0 	mov	x0, x25
  401c4c:	94005ae9 	bl	4187f0 <__free>
  401c50:	d2800001 	mov	x1, #0x0                   	// #0
  401c54:	aa0103f8 	mov	x24, x1
  401c58:	17fffe76 	b	401630 <_nl_find_msg+0x208>
  401c5c:	aa1403e0 	mov	x0, x20
  401c60:	9400482a 	bl	413d08 <__lll_lock_wait_private>
  401c64:	17ffffae 	b	401b1c <_nl_find_msg+0x6f4>
  401c68:	94007a7a 	bl	420650 <__stack_chk_fail>
  401c6c:	aa1303e0 	mov	x0, x19
  401c70:	d2801021 	mov	x1, #0x81                  	// #129
  401c74:	d2800022 	mov	x2, #0x1                   	// #1
  401c78:	d2800003 	mov	x3, #0x0                   	// #0
  401c7c:	d2800c48 	mov	x8, #0x62                  	// #98
  401c80:	d4000001 	svc	#0x0
  401c84:	17ffffdd 	b	401bf8 <_nl_find_msg+0x7d0>
  401c88:	92800000 	mov	x0, #0xffffffffffffffff    	// #-1
  401c8c:	f9000740 	str	x0, [x26, #8]
  401c90:	17ffff81 	b	401a94 <_nl_find_msg+0x66c>
  401c94:	d503201f 	nop

0000000000401c98 <__dcigettext>:
  401c98:	a9ac7bfd 	stp	x29, x30, [sp, #-320]!
  401c9c:	910003fd 	mov	x29, sp
  401ca0:	a90363f7 	stp	x23, x24, [sp, #48]
  401ca4:	f0000437 	adrp	x23, 488000 <__FRAME_END__+0xff7c>
  401ca8:	9126c2e6 	add	x6, x23, #0x9b0
  401cac:	f94000c7 	ldr	x7, [x6]
  401cb0:	f9009fa7 	str	x7, [x29, #312]
  401cb4:	d2800007 	mov	x7, #0x0                   	// #0
  401cb8:	a90153f3 	stp	x19, x20, [sp, #16]
  401cbc:	a9025bf5 	stp	x21, x22, [sp, #32]
  401cc0:	a9046bf9 	stp	x25, x26, [sp, #64]
  401cc4:	a90573fb 	stp	x27, x28, [sp, #80]
  401cc8:	d10043ff 	sub	sp, sp, #0x10
  401ccc:	a90b13a2 	stp	x2, x4, [x29, #176]
  401cd0:	b900cfa3 	str	w3, [x29, #204]
  401cd4:	f9006ba6 	str	x6, [x29, #208]
  401cd8:	f90077bf 	str	xzr, [x29, #232]
  401cdc:	b4002a41 	cbz	x1, 402224 <__dcigettext+0x58c>
  401ce0:	710030bf 	cmp	w5, #0xc
  401ce4:	aa0103f5 	mov	x21, x1
  401ce8:	2a0503f6 	mov	w22, w5
  401cec:	7a4698a4 	ccmp	w5, #0x6, #0x4, ls  // ls = plast
  401cf0:	540024a0 	b.eq	402184 <__dcigettext+0x4ec>  // b.none
  401cf4:	f0000421 	adrp	x1, 488000 <__FRAME_END__+0xff7c>
  401cf8:	f947c821 	ldr	x1, [x1, #3984]
  401cfc:	d53bd042 	mrs	x2, tpidr_el0
  401d00:	aa0003f4 	mov	x20, x0
  401d04:	90000280 	adrp	x0, 451000 <free_modules_db+0x18>
  401d08:	a90987a2 	stp	x2, x1, [x29, #152]
  401d0c:	b0000459 	adrp	x25, 48a000 <_dl_main_map+0xc0>
  401d10:	f945b813 	ldr	x19, [x0, #2928]
  401d14:	b8616840 	ldr	w0, [x2, x1]
  401d18:	b900cba0 	str	w0, [x29, #200]
  401d1c:	b4001bb3 	cbz	x19, 402090 <__dcigettext+0x3f8>
  401d20:	d0000440 	adrp	x0, 48b000 <initial+0xd0>
  401d24:	91120000 	add	x0, x0, #0x480
  401d28:	d503201f 	nop
  401d2c:	b4001b33 	cbz	x19, 402090 <__dcigettext+0x3f8>
  401d30:	91374320 	add	x0, x25, #0xdd0
  401d34:	f90063a0 	str	x0, [x29, #192]
  401d38:	9100e000 	add	x0, x0, #0x38
  401d3c:	d503201f 	nop
  401d40:	90000441 	adrp	x1, 489000 <_GLOBAL_OFFSET_TABLE_+0xb8>
  401d44:	f100029f 	cmp	x20, #0x0
  401d48:	2a1603e0 	mov	w0, w22
  401d4c:	b90103b6 	str	w22, [x29, #256]
  401d50:	f9402821 	ldr	x1, [x1, #80]
  401d54:	f9008fbf 	str	xzr, [x29, #280]
  401d58:	f9009bb5 	str	x21, [x29, #304]
  401d5c:	9a940034 	csel	x20, x1, x20, eq  // eq = none
  401d60:	f9007fb4 	str	x20, [x29, #248]
  401d64:	9400abf3 	bl	42cd30 <__current_locale_name>
  401d68:	f90047a0 	str	x0, [x29, #136]
  401d6c:	f90087a0 	str	x0, [x29, #264]
  401d70:	b4000093 	cbz	x19, 401d80 <__dcigettext+0xe8>
  401d74:	f94063a0 	ldr	x0, [x29, #192]
  401d78:	9101c000 	add	x0, x0, #0x70
  401d7c:	d503201f 	nop
  401d80:	f94063b3 	ldr	x19, [x29, #192]
  401d84:	90000000 	adrp	x0, 401000 <__assert_fail_base+0xc8>
  401d88:	910ca000 	add	x0, x0, #0x328
  401d8c:	f90043a0 	str	x0, [x29, #128]
  401d90:	aa0003e2 	mov	x2, x0
  401d94:	aa1303e1 	mov	x1, x19
  401d98:	9103e3a0 	add	x0, x29, #0xf8
  401d9c:	940075fb 	bl	41f588 <__tfind>
  401da0:	90000281 	adrp	x1, 451000 <free_modules_db+0x18>
  401da4:	f90057a0 	str	x0, [x29, #168]
  401da8:	f945c020 	ldr	x0, [x1, #2944]
  401dac:	f9006fa0 	str	x0, [x29, #216]
  401db0:	b4000060 	cbz	x0, 401dbc <__dcigettext+0x124>
  401db4:	9101c260 	add	x0, x19, #0x70
  401db8:	d503201f 	nop
  401dbc:	f94057a0 	ldr	x0, [x29, #168]
  401dc0:	b40000e0 	cbz	x0, 401ddc <__dcigettext+0x144>
  401dc4:	f9400000 	ldr	x0, [x0]
  401dc8:	d0000441 	adrp	x1, 48b000 <initial+0xd0>
  401dcc:	b94d9821 	ldr	w1, [x1, #3480]
  401dd0:	b9401802 	ldr	w2, [x0, #24]
  401dd4:	6b01005f 	cmp	w2, w1
  401dd8:	54002000 	b.eq	4021d8 <__dcigettext+0x540>  // b.none
  401ddc:	d0000440 	adrp	x0, 48b000 <initial+0xd0>
  401de0:	f946c813 	ldr	x19, [x0, #3472]
  401de4:	b50000b3 	cbnz	x19, 401df8 <__dcigettext+0x160>
  401de8:	140000f5 	b	4021bc <__dcigettext+0x524>
  401dec:	54001eeb 	b.lt	4021c8 <__dcigettext+0x530>  // b.tstop
  401df0:	f9400273 	ldr	x19, [x19]
  401df4:	b4001e53 	cbz	x19, 4021bc <__dcigettext+0x524>
  401df8:	91006261 	add	x1, x19, #0x18
  401dfc:	aa1403e0 	mov	x0, x20
  401e00:	94005ff0 	bl	419dc0 <strcmp>
  401e04:	7100001f 	cmp	w0, #0x0
  401e08:	35ffff20 	cbnz	w0, 401dec <__dcigettext+0x154>
  401e0c:	f9400678 	ldr	x24, [x19, #8]
  401e10:	39400300 	ldrb	w0, [x24]
  401e14:	7100bc1f 	cmp	w0, #0x2f
  401e18:	54000240 	b.eq	401e60 <__dcigettext+0x1c8>  // b.none
  401e1c:	d2800001 	mov	x1, #0x0                   	// #0
  401e20:	d2800000 	mov	x0, #0x0                   	// #0
  401e24:	94007197 	bl	41e480 <__getcwd>
  401e28:	aa0003fa 	mov	x26, x0
  401e2c:	b4001660 	cbz	x0, 4020f8 <__dcigettext+0x460>
  401e30:	aa1803e3 	mov	x3, x24
  401e34:	aa0003e2 	mov	x2, x0
  401e38:	90000281 	adrp	x1, 451000 <free_modules_db+0x18>
  401e3c:	912ca021 	add	x1, x1, #0xb28
  401e40:	9103a3a0 	add	x0, x29, #0xe8
  401e44:	9400125b 	bl	4067b0 <___asprintf>
  401e48:	2a0003f8 	mov	w24, w0
  401e4c:	aa1a03e0 	mov	x0, x26
  401e50:	94005a68 	bl	4187f0 <__free>
  401e54:	37f81538 	tbnz	w24, #31, 4020f8 <__dcigettext+0x460>
  401e58:	f94077b8 	ldr	x24, [x29, #232]
  401e5c:	d503201f 	nop
  401e60:	900002a2 	adrp	x2, 455000 <builtin_aliases+0x1d8>
  401e64:	912b8042 	add	x2, x2, #0xae0
  401e68:	900002bb 	adrp	x27, 455000 <builtin_aliases+0x1d8>
  401e6c:	91294361 	add	x1, x27, #0xa50
  401e70:	2a1603e0 	mov	w0, w22
  401e74:	3876c85b 	ldrb	w27, [x2, w22, sxtw]
  401e78:	8b01037b 	add	x27, x27, x1
  401e7c:	9400abad 	bl	42cd30 <__current_locale_name>
  401e80:	aa0003f7 	mov	x23, x0
  401e84:	39400000 	ldrb	w0, [x0]
  401e88:	71010c1f 	cmp	w0, #0x43
  401e8c:	54001881 	b.ne	40219c <__dcigettext+0x504>  // b.any
  401e90:	394006e0 	ldrb	w0, [x23, #1]
  401e94:	35001840 	cbnz	w0, 40219c <__dcigettext+0x504>
  401e98:	aa1403e0 	mov	x0, x20
  401e9c:	97fff919 	bl	400300 <.plt+0x60>
  401ea0:	aa0003e1 	mov	x1, x0
  401ea4:	aa1b03e0 	mov	x0, x27
  401ea8:	aa0103f9 	mov	x25, x1
  401eac:	f9003fa1 	str	x1, [x29, #120]
  401eb0:	97fff914 	bl	400300 <.plt+0x60>
  401eb4:	8b190000 	add	x0, x0, x25
  401eb8:	91005000 	add	x0, x0, #0x14
  401ebc:	9100eb22 	add	x2, x25, #0x3a
  401ec0:	9270bc01 	and	x1, x0, #0xffffffffffff0000
  401ec4:	f9003ba2 	str	x2, [x29, #112]
  401ec8:	cb2163e1 	sub	x1, sp, x1
  401ecc:	927cec00 	and	x0, x0, #0xfffffffffffffff0
  401ed0:	eb2163ff 	cmp	sp, x1
  401ed4:	540000a0 	b.eq	401ee8 <__dcigettext+0x250>  // b.none
  401ed8:	d14043ff 	sub	sp, sp, #0x10, lsl #12
  401edc:	eb2163ff 	cmp	sp, x1
  401ee0:	f90203ff 	str	xzr, [sp, #1024]
  401ee4:	54ffffa1 	b.ne	401ed8 <__dcigettext+0x240>  // b.any
  401ee8:	92403c00 	and	x0, x0, #0xffff
  401eec:	cb2063ff 	sub	sp, sp, x0
  401ef0:	f110001f 	cmp	x0, #0x400
  401ef4:	f90003ff 	str	xzr, [sp]
  401ef8:	54000043 	b.cc	401f00 <__dcigettext+0x268>  // b.lo, b.ul, b.last
  401efc:	f90203ff 	str	xzr, [sp, #1024]
  401f00:	910043fa 	add	x26, sp, #0x10
  401f04:	aa1b03e1 	mov	x1, x27
  401f08:	aa1a03e0 	mov	x0, x26
  401f0c:	940064cd 	bl	41b240 <__stpcpy>
  401f10:	f9403fa2 	ldr	x2, [x29, #120]
  401f14:	528005e3 	mov	w3, #0x2f                  	// #47
  401f18:	78001403 	strh	w3, [x0], #1
  401f1c:	aa1403e1 	mov	x1, x20
  401f20:	940064b0 	bl	41b1e0 <__mempcpy>
  401f24:	aa0003e1 	mov	x1, x0
  401f28:	528da5c2 	mov	w2, #0x6d2e                	// #27950
  401f2c:	aa1703e0 	mov	x0, x23
  401f30:	72a00de2 	movk	w2, #0x6f, lsl #16
  401f34:	b9000022 	str	w2, [x1]
  401f38:	97fff8f2 	bl	400300 <.plt+0x60>
  401f3c:	91004000 	add	x0, x0, #0x10
  401f40:	9270bc01 	and	x1, x0, #0xffffffffffff0000
  401f44:	927cec00 	and	x0, x0, #0xfffffffffffffff0
  401f48:	cb2163e1 	sub	x1, sp, x1
  401f4c:	eb2163ff 	cmp	sp, x1
  401f50:	540000a0 	b.eq	401f64 <__dcigettext+0x2cc>  // b.none
  401f54:	d14043ff 	sub	sp, sp, #0x10, lsl #12
  401f58:	eb2163ff 	cmp	sp, x1
  401f5c:	f90203ff 	str	xzr, [sp, #1024]
  401f60:	54ffffa1 	b.ne	401f54 <__dcigettext+0x2bc>  // b.any
  401f64:	92403c00 	and	x0, x0, #0xffff
  401f68:	cb2063ff 	sub	sp, sp, x0
  401f6c:	f110001f 	cmp	x0, #0x400
  401f70:	f90003ff 	str	xzr, [sp]
  401f74:	54000043 	b.cc	401f7c <__dcigettext+0x2e4>  // b.lo, b.ul, b.last
  401f78:	f90203ff 	str	xzr, [sp, #1024]
  401f7c:	9000029b 	adrp	x27, 451000 <free_modules_db+0x18>
  401f80:	910043f9 	add	x25, sp, #0x10
  401f84:	912d037b 	add	x27, x27, #0xb40
  401f88:	f0000420 	adrp	x0, 488000 <__FRAME_END__+0xff7c>
  401f8c:	913c0000 	add	x0, x0, #0xf00
  401f90:	f9004ba0 	str	x0, [x29, #144]
  401f94:	d503201f 	nop
  401f98:	394002e0 	ldrb	w0, [x23]
  401f9c:	7100e81f 	cmp	w0, #0x3a
  401fa0:	54001460 	b.eq	40222c <__dcigettext+0x594>  // b.none
  401fa4:	35001480 	cbnz	w0, 402234 <__dcigettext+0x59c>
  401fa8:	52800860 	mov	w0, #0x43                  	// #67
  401fac:	79000320 	strh	w0, [x25]
  401fb0:	39400320 	ldrb	w0, [x25]
  401fb4:	71010c1f 	cmp	w0, #0x43
  401fb8:	54000061 	b.ne	401fc4 <__dcigettext+0x32c>  // b.any
  401fbc:	39400720 	ldrb	w0, [x25, #1]
  401fc0:	340009c0 	cbz	w0, 4020f8 <__dcigettext+0x460>
  401fc4:	aa1b03e1 	mov	x1, x27
  401fc8:	aa1903e0 	mov	x0, x25
  401fcc:	94005f7d 	bl	419dc0 <strcmp>
  401fd0:	34000940 	cbz	w0, 4020f8 <__dcigettext+0x460>
  401fd4:	aa1303e3 	mov	x3, x19
  401fd8:	aa1a03e2 	mov	x2, x26
  401fdc:	aa1903e1 	mov	x1, x25
  401fe0:	aa1803e0 	mov	x0, x24
  401fe4:	940000ff 	bl	4023e0 <_nl_find_domain>
  401fe8:	aa0003fc 	mov	x28, x0
  401fec:	b4fffd60 	cbz	x0, 401f98 <__dcigettext+0x300>
  401ff0:	9103c3a4 	add	x4, x29, #0xf0
  401ff4:	aa1503e2 	mov	x2, x21
  401ff8:	aa1303e1 	mov	x1, x19
  401ffc:	52800023 	mov	w3, #0x1                   	// #1
  402000:	97fffd0a 	bl	401428 <_nl_find_msg>
  402004:	aa0003e4 	mov	x4, x0
  402008:	b40004a0 	cbz	x0, 40209c <__dcigettext+0x404>
  40200c:	b100041f 	cmn	x0, #0x1
  402010:	54000740 	b.eq	4020f8 <__dcigettext+0x460>  // b.none
  402014:	f94077a0 	ldr	x0, [x29, #232]
  402018:	f9005ba4 	str	x4, [x29, #176]
  40201c:	940059f5 	bl	4187f0 <__free>
  402020:	a94a93a0 	ldp	x0, x4, [x29, #168]
  402024:	b4001560 	cbz	x0, 4022d0 <__dcigettext+0x638>
  402028:	f94057a0 	ldr	x0, [x29, #168]
  40202c:	b0000442 	adrp	x2, 48b000 <initial+0xd0>
  402030:	f9407ba1 	ldr	x1, [x29, #240]
  402034:	f9400000 	ldr	x0, [x0]
  402038:	b94d9842 	ldr	w2, [x2, #3480]
  40203c:	b9001802 	str	w2, [x0, #24]
  402040:	a902101c 	stp	x28, x4, [x0, #32]
  402044:	f9001801 	str	x1, [x0, #48]
  402048:	a94987a0 	ldp	x0, x1, [x29, #152]
  40204c:	b940cba2 	ldr	w2, [x29, #200]
  402050:	b8216802 	str	w2, [x0, x1]
  402054:	b940cfa0 	ldr	w0, [x29, #204]
  402058:	350012e0 	cbnz	w0, 4022b4 <__dcigettext+0x61c>
  40205c:	f9406fb3 	ldr	x19, [x29, #216]
  402060:	b4000753 	cbz	x19, 402148 <__dcigettext+0x4b0>
  402064:	f94063a0 	ldr	x0, [x29, #192]
  402068:	f9006fa4 	str	x4, [x29, #216]
  40206c:	9100e000 	add	x0, x0, #0x38
  402070:	d503201f 	nop
  402074:	f9406fa4 	ldr	x4, [x29, #216]
  402078:	b4000693 	cbz	x19, 402148 <__dcigettext+0x4b0>
  40207c:	b0000440 	adrp	x0, 48b000 <initial+0xd0>
  402080:	91120000 	add	x0, x0, #0x480
  402084:	d503201f 	nop
  402088:	f9406fa4 	ldr	x4, [x29, #216]
  40208c:	1400002f 	b	402148 <__dcigettext+0x4b0>
  402090:	91374320 	add	x0, x25, #0xdd0
  402094:	f90063a0 	str	x0, [x29, #192]
  402098:	17ffff2a 	b	401d40 <__dcigettext+0xa8>
  40209c:	f9401380 	ldr	x0, [x28, #32]
  4020a0:	b4fff7c0 	cbz	x0, 401f98 <__dcigettext+0x300>
  4020a4:	91008381 	add	x1, x28, #0x20
  4020a8:	d2800006 	mov	x6, #0x0                   	// #0
  4020ac:	a9065fb8 	stp	x24, x23, [x29, #96]
  4020b0:	aa1503f8 	mov	x24, x21
  4020b4:	aa0603f7 	mov	x23, x6
  4020b8:	aa1303f5 	mov	x21, x19
  4020bc:	aa0103f3 	mov	x19, x1
  4020c0:	14000005 	b	4020d4 <__dcigettext+0x43c>
  4020c4:	b5000d60 	cbnz	x0, 402270 <__dcigettext+0x5d8>
  4020c8:	910006f7 	add	x23, x23, #0x1
  4020cc:	f8777a60 	ldr	x0, [x19, x23, lsl #3]
  4020d0:	b4000da0 	cbz	x0, 402284 <__dcigettext+0x5ec>
  4020d4:	aa1503e1 	mov	x1, x21
  4020d8:	9103c3a4 	add	x4, x29, #0xf0
  4020dc:	aa1803e2 	mov	x2, x24
  4020e0:	52800023 	mov	w3, #0x1                   	// #1
  4020e4:	97fffcd1 	bl	401428 <_nl_find_msg>
  4020e8:	b100041f 	cmn	x0, #0x1
  4020ec:	2a1703e1 	mov	w1, w23
  4020f0:	54fffea1 	b.ne	4020c4 <__dcigettext+0x42c>  // b.any
  4020f4:	aa1803f5 	mov	x21, x24
  4020f8:	f94077a0 	ldr	x0, [x29, #232]
  4020fc:	940059bd 	bl	4187f0 <__free>
  402100:	f9406fb3 	ldr	x19, [x29, #216]
  402104:	b4000113 	cbz	x19, 402124 <__dcigettext+0x48c>
  402108:	f94063a0 	ldr	x0, [x29, #192]
  40210c:	9100e000 	add	x0, x0, #0x38
  402110:	d503201f 	nop
  402114:	b4000093 	cbz	x19, 402124 <__dcigettext+0x48c>
  402118:	b0000440 	adrp	x0, 48b000 <initial+0xd0>
  40211c:	91120000 	add	x0, x0, #0x480
  402120:	d503201f 	nop
  402124:	a94987a0 	ldp	x0, x1, [x29, #152]
  402128:	b940cba2 	ldr	w2, [x29, #200]
  40212c:	b8216802 	str	w2, [x0, x1]
  402130:	b940cfa0 	ldr	w0, [x29, #204]
  402134:	7100001f 	cmp	w0, #0x0
  402138:	f9405fa0 	ldr	x0, [x29, #184]
  40213c:	fa411804 	ccmp	x0, #0x1, #0x4, ne  // ne = any
  402140:	540002a1 	b.ne	402194 <__dcigettext+0x4fc>  // b.any
  402144:	aa1503e4 	mov	x4, x21
  402148:	f9406ba0 	ldr	x0, [x29, #208]
  40214c:	f9409fa1 	ldr	x1, [x29, #312]
  402150:	f9400002 	ldr	x2, [x0]
  402154:	eb020021 	subs	x1, x1, x2
  402158:	d2800002 	mov	x2, #0x0                   	// #0
  40215c:	540013e1 	b.ne	4023d8 <__dcigettext+0x740>  // b.any
  402160:	910003bf 	mov	sp, x29
  402164:	aa0403e0 	mov	x0, x4
  402168:	a94153f3 	ldp	x19, x20, [sp, #16]
  40216c:	a9425bf5 	ldp	x21, x22, [sp, #32]
  402170:	a94363f7 	ldp	x23, x24, [sp, #48]
  402174:	a9446bf9 	ldp	x25, x26, [sp, #64]
  402178:	a94573fb 	ldp	x27, x28, [sp, #80]
  40217c:	a8d47bfd 	ldp	x29, x30, [sp], #320
  402180:	d65f03c0 	ret
  402184:	2a0303e0 	mov	w0, w3
  402188:	7100001f 	cmp	w0, #0x0
  40218c:	fa411884 	ccmp	x4, #0x1, #0x4, ne  // ne = any
  402190:	54fffda0 	b.eq	402144 <__dcigettext+0x4ac>  // b.none
  402194:	f9405ba4 	ldr	x4, [x29, #176]
  402198:	17ffffec 	b	402148 <__dcigettext+0x4b0>
  40219c:	f0000260 	adrp	x0, 451000 <free_modules_db+0x18>
  4021a0:	912cc000 	add	x0, x0, #0xb30
  4021a4:	94000e4f 	bl	405ae0 <getenv>
  4021a8:	b4ffe780 	cbz	x0, 401e98 <__dcigettext+0x200>
  4021ac:	39400001 	ldrb	w1, [x0]
  4021b0:	7100003f 	cmp	w1, #0x0
  4021b4:	9a8002f7 	csel	x23, x23, x0, eq  // eq = none
  4021b8:	17ffff38 	b	401e98 <__dcigettext+0x200>
  4021bc:	f0000278 	adrp	x24, 451000 <free_modules_db+0x18>
  4021c0:	912d2318 	add	x24, x24, #0xb48
  4021c4:	17ffff27 	b	401e60 <__dcigettext+0x1c8>
  4021c8:	f0000278 	adrp	x24, 451000 <free_modules_db+0x18>
  4021cc:	d2800013 	mov	x19, #0x0                   	// #0
  4021d0:	912d2318 	add	x24, x24, #0xb48
  4021d4:	17ffff23 	b	401e60 <__dcigettext+0x1c8>
  4021d8:	b940cfa1 	ldr	w1, [x29, #204]
  4021dc:	f9401404 	ldr	x4, [x0, #40]
  4021e0:	350005a1 	cbnz	w1, 402294 <__dcigettext+0x5fc>
  4021e4:	f9406fb3 	ldr	x19, [x29, #216]
  4021e8:	b4000173 	cbz	x19, 402214 <__dcigettext+0x57c>
  4021ec:	f94063a0 	ldr	x0, [x29, #192]
  4021f0:	f9006fa4 	str	x4, [x29, #216]
  4021f4:	9100e000 	add	x0, x0, #0x38
  4021f8:	d503201f 	nop
  4021fc:	f9406fa4 	ldr	x4, [x29, #216]
  402200:	b40000b3 	cbz	x19, 402214 <__dcigettext+0x57c>
  402204:	b0000440 	adrp	x0, 48b000 <initial+0xd0>
  402208:	91120000 	add	x0, x0, #0x480
  40220c:	d503201f 	nop
  402210:	f9406fa4 	ldr	x4, [x29, #216]
  402214:	a94987a0 	ldp	x0, x1, [x29, #152]
  402218:	b940cba2 	ldr	w2, [x29, #200]
  40221c:	b8216802 	str	w2, [x0, x1]
  402220:	17ffffca 	b	402148 <__dcigettext+0x4b0>
  402224:	d2800004 	mov	x4, #0x0                   	// #0
  402228:	17ffffc8 	b	402148 <__dcigettext+0x4b0>
  40222c:	910006f7 	add	x23, x23, #0x1
  402230:	17ffff5a 	b	401f98 <__dcigettext+0x300>
  402234:	aa1903e1 	mov	x1, x25
  402238:	38001420 	strb	w0, [x1], #1
  40223c:	38401ee0 	ldrb	w0, [x23, #1]!
  402240:	7100e81f 	cmp	w0, #0x3a
  402244:	7a401804 	ccmp	w0, #0x0, #0x4, ne  // ne = any
  402248:	54ffff81 	b.ne	402238 <__dcigettext+0x5a0>  // b.any
  40224c:	f9404ba0 	ldr	x0, [x29, #144]
  402250:	3900003f 	strb	wzr, [x1]
  402254:	b9400000 	ldr	w0, [x0]
  402258:	34ffeac0 	cbz	w0, 401fb0 <__dcigettext+0x318>
  40225c:	aa1903e0 	mov	x0, x25
  402260:	528005e1 	mov	w1, #0x2f                  	// #47
  402264:	94005e9b 	bl	419cd0 <strchr>
  402268:	b5ffe980 	cbnz	x0, 401f98 <__dcigettext+0x300>
  40226c:	17ffff51 	b	401fb0 <__dcigettext+0x318>
  402270:	8b21cf81 	add	x1, x28, w1, sxtw #3
  402274:	aa0003e4 	mov	x4, x0
  402278:	aa1803f5 	mov	x21, x24
  40227c:	f940103c 	ldr	x28, [x1, #32]
  402280:	17ffff65 	b	402014 <__dcigettext+0x37c>
  402284:	aa1503f3 	mov	x19, x21
  402288:	aa1803f5 	mov	x21, x24
  40228c:	a9465fb8 	ldp	x24, x23, [x29, #96]
  402290:	17ffff42 	b	401f98 <__dcigettext+0x300>
  402294:	f9401005 	ldr	x5, [x0, #32]
  402298:	aa0403e2 	mov	x2, x4
  40229c:	f9401803 	ldr	x3, [x0, #48]
  4022a0:	f94008a0 	ldr	x0, [x5, #16]
  4022a4:	f9405fa1 	ldr	x1, [x29, #184]
  4022a8:	97fffc40 	bl	4013a8 <plural_lookup.isra.0>
  4022ac:	aa0003e4 	mov	x4, x0
  4022b0:	17ffffcd 	b	4021e4 <__dcigettext+0x54c>
  4022b4:	f9400b80 	ldr	x0, [x28, #16]
  4022b8:	aa0403e2 	mov	x2, x4
  4022bc:	f9405fa1 	ldr	x1, [x29, #184]
  4022c0:	f9407ba3 	ldr	x3, [x29, #240]
  4022c4:	97fffc39 	bl	4013a8 <plural_lookup.isra.0>
  4022c8:	aa0003e4 	mov	x4, x0
  4022cc:	17ffff64 	b	40205c <__dcigettext+0x3c4>
  4022d0:	aa1503e0 	mov	x0, x21
  4022d4:	97fff80b 	bl	400300 <.plt+0x60>
  4022d8:	f94047b7 	ldr	x23, [x29, #136]
  4022dc:	91000413 	add	x19, x0, #0x1
  4022e0:	aa1703e0 	mov	x0, x23
  4022e4:	97fff807 	bl	400300 <.plt+0x60>
  4022e8:	f9403ba1 	ldr	x1, [x29, #112]
  4022ec:	8b130000 	add	x0, x0, x19
  4022f0:	8b010000 	add	x0, x0, x1
  4022f4:	940057cd 	bl	418228 <__libc_malloc>
  4022f8:	aa0003f8 	mov	x24, x0
  4022fc:	f9405ba4 	ldr	x4, [x29, #176]
  402300:	b4ffea40 	cbz	x0, 402048 <__dcigettext+0x3b0>
  402304:	f9403fa0 	ldr	x0, [x29, #120]
  402308:	aa1303e2 	mov	x2, x19
  40230c:	aa1503e1 	mov	x1, x21
  402310:	91000413 	add	x19, x0, #0x1
  402314:	9100e300 	add	x0, x24, #0x38
  402318:	940063b2 	bl	41b1e0 <__mempcpy>
  40231c:	aa0003f5 	mov	x21, x0
  402320:	aa1303e2 	mov	x2, x19
  402324:	aa1403e1 	mov	x1, x20
  402328:	8b130013 	add	x19, x0, x19
  40232c:	97fff7e1 	bl	4002b0 <.plt+0x10>
  402330:	aa1703e1 	mov	x1, x23
  402334:	aa1303e0 	mov	x0, x19
  402338:	94005ee2 	bl	419ec0 <strcpy>
  40233c:	f9000315 	str	x21, [x24]
  402340:	f0000260 	adrp	x0, 451000 <free_modules_db+0x18>
  402344:	b0000441 	adrp	x1, 48b000 <initial+0xd0>
  402348:	f9405ba4 	ldr	x4, [x29, #176]
  40234c:	b9000b16 	str	w22, [x24, #8]
  402350:	f945bc00 	ldr	x0, [x0, #2936]
  402354:	f9000b13 	str	x19, [x24, #16]
  402358:	b94d9822 	ldr	w2, [x1, #3480]
  40235c:	f9407ba1 	ldr	x1, [x29, #240]
  402360:	b9001b02 	str	w2, [x24, #24]
  402364:	a902131c 	stp	x28, x4, [x24, #32]
  402368:	f9001b01 	str	x1, [x24, #48]
  40236c:	b40000a0 	cbz	x0, 402380 <__dcigettext+0x6e8>
  402370:	f94063a0 	ldr	x0, [x29, #192]
  402374:	9101c000 	add	x0, x0, #0x70
  402378:	d503201f 	nop
  40237c:	f9405ba4 	ldr	x4, [x29, #176]
  402380:	aa1803e0 	mov	x0, x24
  402384:	f94043a2 	ldr	x2, [x29, #128]
  402388:	f9005ba4 	str	x4, [x29, #176]
  40238c:	f94063b4 	ldr	x20, [x29, #192]
  402390:	aa1403e1 	mov	x1, x20
  402394:	94007419 	bl	41f3f8 <__tsearch>
  402398:	aa0003f3 	mov	x19, x0
  40239c:	f9406fa0 	ldr	x0, [x29, #216]
  4023a0:	f9405ba4 	ldr	x4, [x29, #176]
  4023a4:	b4000080 	cbz	x0, 4023b4 <__dcigettext+0x71c>
  4023a8:	9101c280 	add	x0, x20, #0x70
  4023ac:	d503201f 	nop
  4023b0:	f9405ba4 	ldr	x4, [x29, #176]
  4023b4:	b4000093 	cbz	x19, 4023c4 <__dcigettext+0x72c>
  4023b8:	f9400260 	ldr	x0, [x19]
  4023bc:	eb18001f 	cmp	x0, x24
  4023c0:	54ffe440 	b.eq	402048 <__dcigettext+0x3b0>  // b.none
  4023c4:	aa1803e0 	mov	x0, x24
  4023c8:	f9005ba4 	str	x4, [x29, #176]
  4023cc:	94005909 	bl	4187f0 <__free>
  4023d0:	f9405ba4 	ldr	x4, [x29, #176]
  4023d4:	17ffff1d 	b	402048 <__dcigettext+0x3b0>
  4023d8:	9400789e 	bl	420650 <__stack_chk_fail>
  4023dc:	d503201f 	nop

00000000004023e0 <_nl_find_domain>:
  4023e0:	d102c3ff 	sub	sp, sp, #0xb0
  4023e4:	f0000264 	adrp	x4, 451000 <free_modules_db+0x18>
  4023e8:	a9027bfd 	stp	x29, x30, [sp, #32]
  4023ec:	910083fd 	add	x29, sp, #0x20
  4023f0:	f945c484 	ldr	x4, [x4, #2952]
  4023f4:	a9045bf5 	stp	x21, x22, [sp, #64]
  4023f8:	d0000435 	adrp	x21, 488000 <__FRAME_END__+0xff7c>
  4023fc:	9126c2b5 	add	x21, x21, #0x9b0
  402400:	a90353f3 	stp	x19, x20, [sp, #48]
  402404:	f94002a5 	ldr	x5, [x21]
  402408:	f90057e5 	str	x5, [sp, #168]
  40240c:	d2800005 	mov	x5, #0x0                   	// #0
  402410:	a90563f7 	stp	x23, x24, [sp, #80]
  402414:	aa0303f6 	mov	x22, x3
  402418:	90000457 	adrp	x23, 48a000 <_dl_main_map+0xc0>
  40241c:	a9066bf9 	stp	x25, x26, [sp, #96]
  402420:	aa0003f8 	mov	x24, x0
  402424:	aa0103f9 	mov	x25, x1
  402428:	aa0203fa 	mov	x26, x2
  40242c:	9139e2f7 	add	x23, x23, #0xe78
  402430:	b4000064 	cbz	x4, 40243c <_nl_find_domain+0x5c>
  402434:	aa1703e0 	mov	x0, x23
  402438:	d503201f 	nop
  40243c:	aa1803e0 	mov	x0, x24
  402440:	97fff7b0 	bl	400300 <.plt+0x60>
  402444:	a9006bff 	stp	xzr, x26, [sp]
  402448:	91000402 	add	x2, x0, #0x1
  40244c:	52800003 	mov	w3, #0x0                   	// #0
  402450:	b90013ff 	str	wzr, [sp, #16]
  402454:	aa1903e4 	mov	x4, x25
  402458:	aa1803e1 	mov	x1, x24
  40245c:	9100e2e0 	add	x0, x23, #0x38
  402460:	d2800007 	mov	x7, #0x0                   	// #0
  402464:	d2800006 	mov	x6, #0x0                   	// #0
  402468:	d2800005 	mov	x5, #0x0                   	// #0
  40246c:	940006b1 	bl	403f30 <_nl_make_l10nflist>
  402470:	f0000263 	adrp	x3, 451000 <free_modules_db+0x18>
  402474:	aa0003f3 	mov	x19, x0
  402478:	f945c874 	ldr	x20, [x3, #2960]
  40247c:	b4000074 	cbz	x20, 402488 <_nl_find_domain+0xa8>
  402480:	aa1703e0 	mov	x0, x23
  402484:	d503201f 	nop
  402488:	b40004d3 	cbz	x19, 402520 <_nl_find_domain+0x140>
  40248c:	b9400a60 	ldr	w0, [x19, #8]
  402490:	7100001f 	cmp	w0, #0x0
  402494:	540003ed 	b.le	402510 <_nl_find_domain+0x130>
  402498:	f9400a60 	ldr	x0, [x19, #16]
  40249c:	b40001c0 	cbz	x0, 4024d4 <_nl_find_domain+0xf4>
  4024a0:	f94057e0 	ldr	x0, [sp, #168]
  4024a4:	f94002a1 	ldr	x1, [x21]
  4024a8:	eb010000 	subs	x0, x0, x1
  4024ac:	d2800001 	mov	x1, #0x0                   	// #0
  4024b0:	54000da1 	b.ne	402664 <_nl_find_domain+0x284>  // b.any
  4024b4:	aa1303e0 	mov	x0, x19
  4024b8:	a9427bfd 	ldp	x29, x30, [sp, #32]
  4024bc:	a94353f3 	ldp	x19, x20, [sp, #48]
  4024c0:	a9445bf5 	ldp	x21, x22, [sp, #64]
  4024c4:	a94563f7 	ldp	x23, x24, [sp, #80]
  4024c8:	a9466bf9 	ldp	x25, x26, [sp, #96]
  4024cc:	9102c3ff 	add	sp, sp, #0xb0
  4024d0:	d65f03c0 	ret
  4024d4:	f9401260 	ldr	x0, [x19, #32]
  4024d8:	b4fffe40 	cbz	x0, 4024a0 <_nl_find_domain+0xc0>
  4024dc:	91008274 	add	x20, x19, #0x20
  4024e0:	14000006 	b	4024f8 <_nl_find_domain+0x118>
  4024e4:	f9400280 	ldr	x0, [x20]
  4024e8:	f9400800 	ldr	x0, [x0, #16]
  4024ec:	b5fffda0 	cbnz	x0, 4024a0 <_nl_find_domain+0xc0>
  4024f0:	f8408e80 	ldr	x0, [x20, #8]!
  4024f4:	b4fffd60 	cbz	x0, 4024a0 <_nl_find_domain+0xc0>
  4024f8:	b9400801 	ldr	w1, [x0, #8]
  4024fc:	7100003f 	cmp	w1, #0x0
  402500:	54ffff2c 	b.gt	4024e4 <_nl_find_domain+0x104>
  402504:	aa1603e1 	mov	x1, x22
  402508:	9400005a 	bl	402670 <_nl_load_domain>
  40250c:	17fffff6 	b	4024e4 <_nl_find_domain+0x104>
  402510:	aa1603e1 	mov	x1, x22
  402514:	aa1303e0 	mov	x0, x19
  402518:	94000056 	bl	402670 <_nl_load_domain>
  40251c:	17ffffdf 	b	402498 <_nl_find_domain+0xb8>
  402520:	aa1903e0 	mov	x0, x25
  402524:	a90773fb 	stp	x27, x28, [sp, #112]
  402528:	9400060a 	bl	403d50 <_nl_expand_alias>
  40252c:	aa0003fc 	mov	x28, x0
  402530:	b4000140 	cbz	x0, 402558 <_nl_find_domain+0x178>
  402534:	97fff773 	bl	400300 <.plt+0x60>
  402538:	9100041b 	add	x27, x0, #0x1
  40253c:	aa1b03e0 	mov	x0, x27
  402540:	9400573a 	bl	418228 <__libc_malloc>
  402544:	aa0003f9 	mov	x25, x0
  402548:	b40005c0 	cbz	x0, 402600 <_nl_find_domain+0x220>
  40254c:	aa1b03e2 	mov	x2, x27
  402550:	aa1c03e1 	mov	x1, x28
  402554:	97fff757 	bl	4002b0 <.plt+0x10>
  402558:	910283e5 	add	x5, sp, #0xa0
  40255c:	910263e4 	add	x4, sp, #0x98
  402560:	910243e3 	add	x3, sp, #0x90
  402564:	910223e2 	add	x2, sp, #0x88
  402568:	910203e1 	add	x1, sp, #0x80
  40256c:	aa1903e0 	mov	x0, x25
  402570:	9400081c 	bl	4045e0 <_nl_explode_name>
  402574:	2a0003fb 	mov	w27, w0
  402578:	3100041f 	cmn	w0, #0x1
  40257c:	54000420 	b.eq	402600 <_nl_find_domain+0x220>  // b.none
  402580:	f0000260 	adrp	x0, 451000 <free_modules_db+0x18>
  402584:	f945cc00 	ldr	x0, [x0, #2968]
  402588:	b4000060 	cbz	x0, 402594 <_nl_find_domain+0x1b4>
  40258c:	aa1703e0 	mov	x0, x23
  402590:	d503201f 	nop
  402594:	aa1803e0 	mov	x0, x24
  402598:	97fff75a 	bl	400300 <.plt+0x60>
  40259c:	91000402 	add	x2, x0, #0x1
  4025a0:	52800021 	mov	w1, #0x1                   	// #1
  4025a4:	a94803e4 	ldp	x4, x0, [sp, #128]
  4025a8:	a9006be0 	stp	x0, x26, [sp]
  4025ac:	2a1b03e3 	mov	w3, w27
  4025b0:	a9491be5 	ldp	x5, x6, [sp, #144]
  4025b4:	b90013e1 	str	w1, [sp, #16]
  4025b8:	f94053e7 	ldr	x7, [sp, #160]
  4025bc:	aa1803e1 	mov	x1, x24
  4025c0:	9100e2e0 	add	x0, x23, #0x38
  4025c4:	9400065b 	bl	403f30 <_nl_make_l10nflist>
  4025c8:	aa0003f3 	mov	x19, x0
  4025cc:	b4000074 	cbz	x20, 4025d8 <_nl_find_domain+0x1f8>
  4025d0:	aa1703e0 	mov	x0, x23
  4025d4:	d503201f 	nop
  4025d8:	b4000133 	cbz	x19, 4025fc <_nl_find_domain+0x21c>
  4025dc:	b9400a60 	ldr	w0, [x19, #8]
  4025e0:	7100001f 	cmp	w0, #0x0
  4025e4:	5400038d 	b.le	402654 <_nl_find_domain+0x274>
  4025e8:	f9400a60 	ldr	x0, [x19, #16]
  4025ec:	b4000160 	cbz	x0, 402618 <_nl_find_domain+0x238>
  4025f0:	b400007c 	cbz	x28, 4025fc <_nl_find_domain+0x21c>
  4025f4:	aa1903e0 	mov	x0, x25
  4025f8:	9400587e 	bl	4187f0 <__free>
  4025fc:	3700007b 	tbnz	w27, #0, 402608 <_nl_find_domain+0x228>
  402600:	a94773fb 	ldp	x27, x28, [sp, #112]
  402604:	17ffffa7 	b	4024a0 <_nl_find_domain+0xc0>
  402608:	f94053e0 	ldr	x0, [sp, #160]
  40260c:	94005879 	bl	4187f0 <__free>
  402610:	a94773fb 	ldp	x27, x28, [sp, #112]
  402614:	17ffffa3 	b	4024a0 <_nl_find_domain+0xc0>
  402618:	f9401260 	ldr	x0, [x19, #32]
  40261c:	b4fffea0 	cbz	x0, 4025f0 <_nl_find_domain+0x210>
  402620:	91008274 	add	x20, x19, #0x20
  402624:	14000006 	b	40263c <_nl_find_domain+0x25c>
  402628:	f9400280 	ldr	x0, [x20]
  40262c:	f9400800 	ldr	x0, [x0, #16]
  402630:	b5fffe00 	cbnz	x0, 4025f0 <_nl_find_domain+0x210>
  402634:	f8408e80 	ldr	x0, [x20, #8]!
  402638:	b4fffdc0 	cbz	x0, 4025f0 <_nl_find_domain+0x210>
  40263c:	b9400801 	ldr	w1, [x0, #8]
  402640:	7100003f 	cmp	w1, #0x0
  402644:	54ffff2c 	b.gt	402628 <_nl_find_domain+0x248>
  402648:	aa1603e1 	mov	x1, x22
  40264c:	94000009 	bl	402670 <_nl_load_domain>
  402650:	17fffff6 	b	402628 <_nl_find_domain+0x248>
  402654:	aa1603e1 	mov	x1, x22
  402658:	aa1303e0 	mov	x0, x19
  40265c:	94000005 	bl	402670 <_nl_load_domain>
  402660:	17ffffe2 	b	4025e8 <_nl_find_domain+0x208>
  402664:	a90773fb 	stp	x27, x28, [sp, #112]
  402668:	940077fa 	bl	420650 <__stack_chk_fail>
  40266c:	d503201f 	nop

0000000000402670 <_nl_load_domain>:
  402670:	a9a67bfd 	stp	x29, x30, [sp, #-416]!
  402674:	90000446 	adrp	x6, 48a000 <_dl_main_map+0xc0>
  402678:	d0000422 	adrp	x2, 488000 <__FRAME_END__+0xff7c>
  40267c:	910003fd 	mov	x29, sp
  402680:	a9046bf9 	stp	x25, x26, [sp, #64]
  402684:	913ae0d9 	add	x25, x6, #0xeb8
  402688:	9126c05a 	add	x26, x2, #0x9b0
  40268c:	f9400342 	ldr	x2, [x26]
  402690:	f900cfe2 	str	x2, [sp, #408]
  402694:	d2800002 	mov	x2, #0x0                   	// #0
  402698:	a90153f3 	stp	x19, x20, [sp, #16]
  40269c:	aa0003f3 	mov	x19, x0
  4026a0:	f9400722 	ldr	x2, [x25, #8]
  4026a4:	a9025bf5 	stp	x21, x22, [sp, #32]
  4026a8:	d53bd055 	mrs	x21, tpidr_el0
  4026ac:	a90573fb 	stp	x27, x28, [sp, #80]
  4026b0:	d11c02b4 	sub	x20, x21, #0x700
  4026b4:	aa0103fc 	mov	x28, x1
  4026b8:	eb14005f 	cmp	x2, x20
  4026bc:	540000e0 	b.eq	4026d8 <_nl_load_domain+0x68>  // b.none
  4026c0:	aa1903e2 	mov	x2, x25
  4026c4:	52800021 	mov	w1, #0x1                   	// #1
  4026c8:	52800000 	mov	w0, #0x0                   	// #0
  4026cc:	940125f9 	bl	44beb0 <__aarch64_cas4_acq>
  4026d0:	35001340 	cbnz	w0, 402938 <_nl_load_domain+0x2c8>
  4026d4:	f9000734 	str	x20, [x25, #8]
  4026d8:	b9400721 	ldr	w1, [x25, #4]
  4026dc:	b9400a60 	ldr	w0, [x19, #8]
  4026e0:	11000422 	add	w2, w1, #0x1
  4026e4:	b9000722 	str	w2, [x25, #4]
  4026e8:	35000dc0 	cbnz	w0, 4028a0 <_nl_load_domain+0x230>
  4026ec:	f9400260 	ldr	x0, [x19]
  4026f0:	12800002 	mov	w2, #0xffffffff            	// #-1
  4026f4:	b9000a62 	str	w2, [x19, #8]
  4026f8:	f9000a7f 	str	xzr, [x19, #16]
  4026fc:	b4000ce0 	cbz	x0, 402898 <_nl_load_domain+0x228>
  402700:	52800001 	mov	w1, #0x0                   	// #0
  402704:	94007153 	bl	41ec50 <__open64_nocancel>
  402708:	2a0003f4 	mov	w20, w0
  40270c:	3100041f 	cmn	w0, #0x1
  402710:	54000f40 	b.eq	4028f8 <_nl_load_domain+0x288>  // b.none
  402714:	2a0003e1 	mov	w1, w0
  402718:	910463e2 	add	x2, sp, #0x118
  40271c:	52800000 	mov	w0, #0x0                   	// #0
  402720:	94006e7e 	bl	41e118 <__fxstat>
  402724:	b9006fe0 	str	w0, [sp, #108]
  402728:	35000e40 	cbnz	w0, 4028f0 <_nl_load_domain+0x280>
  40272c:	f940a7f6 	ldr	x22, [sp, #328]
  402730:	f100bedf 	cmp	x22, #0x2f
  402734:	54000de9 	b.ls	4028f0 <_nl_load_domain+0x280>  // b.plast
  402738:	2a1403e4 	mov	w4, w20
  40273c:	aa1603e1 	mov	x1, x22
  402740:	d2800005 	mov	x5, #0x0                   	// #0
  402744:	52800043 	mov	w3, #0x2                   	// #2
  402748:	52800022 	mov	w2, #0x1                   	// #1
  40274c:	d2800000 	mov	x0, #0x0                   	// #0
  402750:	a90363f7 	stp	x23, x24, [sp, #48]
  402754:	9400721f 	bl	41efd0 <__mmap64>
  402758:	aa0003fb 	mov	x27, x0
  40275c:	b100041f 	cmn	x0, #0x1
  402760:	54002de0 	b.eq	402d1c <_nl_load_domain+0x6ac>  // b.none
  402764:	2a1403e0 	mov	w0, w20
  402768:	940070e2 	bl	41eaf0 <__close_nocancel>
  40276c:	b9400378 	ldr	w24, [x27]
  402770:	52825bc1 	mov	w1, #0x12de                	// #4830
  402774:	72b2a081 	movk	w1, #0x9504, lsl #16
  402778:	528092a0 	mov	w0, #0x495                 	// #1173
  40277c:	6b01031f 	cmp	w24, w1
  402780:	72bbc240 	movk	w0, #0xde12, lsl #16
  402784:	1a9f07f4 	cset	w20, ne  // ne = any
  402788:	7100029f 	cmp	w20, #0x0
  40278c:	7a401304 	ccmp	w24, w0, #0x4, ne  // ne = any
  402790:	54002581 	b.ne	402c40 <_nl_load_domain+0x5d0>  // b.any
  402794:	52800020 	mov	w0, #0x1                   	// #1
  402798:	b9006fe0 	str	w0, [sp, #108]
  40279c:	d2801900 	mov	x0, #0xc8                  	// #200
  4027a0:	940056a2 	bl	418228 <__libc_malloc>
  4027a4:	aa0003f7 	mov	x23, x0
  4027a8:	b4000700 	cbz	x0, 402888 <_nl_load_domain+0x218>
  4027ac:	52825bc0 	mov	w0, #0x12de                	// #4830
  4027b0:	b9406fe1 	ldr	w1, [sp, #108]
  4027b4:	72b2a080 	movk	w0, #0x9504, lsl #16
  4027b8:	6b00031f 	cmp	w24, w0
  4027bc:	b9400760 	ldr	w0, [x27, #4]
  4027c0:	f90002fb 	str	x27, [x23]
  4027c4:	b9000ae1 	str	w1, [x23, #8]
  4027c8:	f9000a77 	str	x23, [x19, #16]
  4027cc:	f9000af6 	str	x22, [x23, #16]
  4027d0:	b9001af4 	str	w20, [x23, #24]
  4027d4:	f90012ff 	str	xzr, [x23, #32]
  4027d8:	54000d00 	b.eq	402978 <_nl_load_domain+0x308>  // b.none
  4027dc:	5ac00800 	rev	w0, w0
  4027e0:	13107c01 	asr	w1, w0, #16
  4027e4:	7100043f 	cmp	w1, #0x1
  4027e8:	54000ae8 	b.hi	402944 <_nl_load_domain+0x2d4>  // b.pmore
  4027ec:	29410b64 	ldp	w4, w2, [x27, #8]
  4027f0:	12003c00 	and	w0, w0, #0xffff
  4027f4:	29422361 	ldp	w1, w8, [x27, #16]
  4027f8:	5ac00842 	rev	w2, w2
  4027fc:	8b020362 	add	x2, x27, x2
  402800:	5ac00884 	rev	w4, w4
  402804:	5ac00821 	rev	w1, w1
  402808:	5ac00903 	rev	w3, w8
  40280c:	8b010361 	add	x1, x27, x1
  402810:	b9002ae4 	str	w4, [x23, #40]
  402814:	a90306e2 	stp	x2, x1, [x23, #48]
  402818:	7100087f 	cmp	w3, #0x2
  40281c:	b9005ae3 	str	w3, [x23, #88]
  402820:	b90073e3 	str	w3, [sp, #112]
  402824:	54000e48 	b.hi	4029ec <_nl_load_domain+0x37c>  // b.pmore
  402828:	f90032ff 	str	xzr, [x23, #96]
  40282c:	b9006af4 	str	w20, [x23, #104]
  402830:	350008a0 	cbnz	w0, 402944 <_nl_load_domain+0x2d4>
  402834:	b90042ff 	str	wzr, [x23, #64]
  402838:	a904feff 	stp	xzr, xzr, [x23, #72]
  40283c:	f0000260 	adrp	x0, 451000 <free_modules_db+0x18>
  402840:	a9077eff 	stp	xzr, xzr, [x23, #112]
  402844:	f945fc00 	ldr	x0, [x0, #3064]
  402848:	b4000080 	cbz	x0, 402858 <_nl_load_domain+0x1e8>
  40284c:	910202e0 	add	x0, x23, #0x80
  402850:	d2800001 	mov	x1, #0x0                   	// #0
  402854:	d503201f 	nop
  402858:	aa1c03e1 	mov	x1, x28
  40285c:	910403e4 	add	x4, sp, #0x100
  402860:	aa1303e0 	mov	x0, x19
  402864:	90000282 	adrp	x2, 452000 <sigall_set+0x68>
  402868:	52800003 	mov	w3, #0x0                   	// #0
  40286c:	91062042 	add	x2, x2, #0x188
  402870:	97fffaee 	bl	401428 <_nl_find_msg>
  402874:	b100041f 	cmn	x0, #0x1
  402878:	54002e60 	b.eq	402e44 <_nl_load_domain+0x7d4>  // b.none
  40287c:	910302e2 	add	x2, x23, #0xc0
  402880:	9102e2e1 	add	x1, x23, #0xb8
  402884:	94000a01 	bl	405088 <__gettext_extract_plural>
  402888:	a94363f7 	ldp	x23, x24, [sp, #48]
  40288c:	b9400721 	ldr	w1, [x25, #4]
  402890:	51000421 	sub	w1, w1, #0x1
  402894:	d503201f 	nop
  402898:	52800020 	mov	w0, #0x1                   	// #1
  40289c:	b9000a60 	str	w0, [x19, #8]
  4028a0:	b9000721 	str	w1, [x25, #4]
  4028a4:	34000301 	cbz	w1, 402904 <_nl_load_domain+0x294>
  4028a8:	f940cfe0 	ldr	x0, [sp, #408]
  4028ac:	f9400341 	ldr	x1, [x26]
  4028b0:	eb010000 	subs	x0, x0, x1
  4028b4:	d2800001 	mov	x1, #0x0                   	// #0
  4028b8:	54006181 	b.ne	4034e8 <_nl_load_domain+0xe78>  // b.any
  4028bc:	a94153f3 	ldp	x19, x20, [sp, #16]
  4028c0:	a9425bf5 	ldp	x21, x22, [sp, #32]
  4028c4:	a9446bf9 	ldp	x25, x26, [sp, #64]
  4028c8:	a94573fb 	ldp	x27, x28, [sp, #80]
  4028cc:	a8da7bfd 	ldp	x29, x30, [sp], #416
  4028d0:	d65f03c0 	ret
  4028d4:	b100041f 	cmn	x0, #0x1
  4028d8:	540000a1 	b.ne	4028ec <_nl_load_domain+0x27c>  // b.any
  4028dc:	f9403be0 	ldr	x0, [sp, #112]
  4028e0:	b8606aa0 	ldr	w0, [x21, x0]
  4028e4:	7100101f 	cmp	w0, #0x4
  4028e8:	540022c0 	b.eq	402d40 <_nl_load_domain+0x6d0>  // b.none
  4028ec:	a94363f7 	ldp	x23, x24, [sp, #48]
  4028f0:	2a1403e0 	mov	w0, w20
  4028f4:	9400707f 	bl	41eaf0 <__close_nocancel>
  4028f8:	b9400721 	ldr	w1, [x25, #4]
  4028fc:	51000421 	sub	w1, w1, #0x1
  402900:	17ffffe6 	b	402898 <_nl_load_domain+0x228>
  402904:	f900073f 	str	xzr, [x25, #8]
  402908:	aa1903e1 	mov	x1, x25
  40290c:	52800000 	mov	w0, #0x0                   	// #0
  402910:	940125c8 	bl	44c030 <__aarch64_swp4_rel>
  402914:	7100041f 	cmp	w0, #0x1
  402918:	54fffc8d 	b.le	4028a8 <_nl_load_domain+0x238>
  40291c:	aa1903e0 	mov	x0, x25
  402920:	d2801021 	mov	x1, #0x81                  	// #129
  402924:	d2800022 	mov	x2, #0x1                   	// #1
  402928:	d2800003 	mov	x3, #0x0                   	// #0
  40292c:	d2800c48 	mov	x8, #0x62                  	// #98
  402930:	d4000001 	svc	#0x0
  402934:	17ffffdd 	b	4028a8 <_nl_load_domain+0x238>
  402938:	aa1903e0 	mov	x0, x25
  40293c:	940044f3 	bl	413d08 <__lll_lock_wait_private>
  402940:	17ffff65 	b	4026d4 <_nl_load_domain+0x64>
  402944:	d2800000 	mov	x0, #0x0                   	// #0
  402948:	940057aa 	bl	4187f0 <__free>
  40294c:	b9406fe0 	ldr	w0, [sp, #108]
  402950:	35000460 	cbnz	w0, 4029dc <_nl_load_domain+0x36c>
  402954:	aa1b03e0 	mov	x0, x27
  402958:	940057a6 	bl	4187f0 <__free>
  40295c:	aa1703e0 	mov	x0, x23
  402960:	940057a4 	bl	4187f0 <__free>
  402964:	b9400721 	ldr	w1, [x25, #4]
  402968:	a94363f7 	ldp	x23, x24, [sp, #48]
  40296c:	51000421 	sub	w1, w1, #0x1
  402970:	f9000a7f 	str	xzr, [x19, #16]
  402974:	17ffffc9 	b	402898 <_nl_load_domain+0x228>
  402978:	13107c01 	asr	w1, w0, #16
  40297c:	7100043f 	cmp	w1, #0x1
  402980:	54fffe28 	b.hi	402944 <_nl_load_domain+0x2d4>  // b.pmore
  402984:	29420f61 	ldp	w1, w3, [x27, #16]
  402988:	b90073e3 	str	w3, [sp, #112]
  40298c:	29410b64 	ldp	w4, w2, [x27, #8]
  402990:	8b010361 	add	x1, x27, x1
  402994:	b9002ae4 	str	w4, [x23, #40]
  402998:	12003c00 	and	w0, w0, #0xffff
  40299c:	8b020362 	add	x2, x27, x2
  4029a0:	a90306e2 	stp	x2, x1, [x23, #48]
  4029a4:	7100087f 	cmp	w3, #0x2
  4029a8:	b9005ae3 	str	w3, [x23, #88]
  4029ac:	54fff3e9 	b.ls	402828 <_nl_load_domain+0x1b8>  // b.plast
  4029b0:	b9401b61 	ldr	w1, [x27, #24]
  4029b4:	b9006af4 	str	w20, [x23, #104]
  4029b8:	8b010361 	add	x1, x27, x1
  4029bc:	f90032e1 	str	x1, [x23, #96]
  4029c0:	f90047e1 	str	x1, [sp, #136]
  4029c4:	34fff380 	cbz	w0, 402834 <_nl_load_domain+0x1c4>
  4029c8:	b9402775 	ldr	w21, [x27, #36]
  4029cc:	34fff355 	cbz	w21, 402834 <_nl_load_domain+0x1c4>
  4029d0:	2943d360 	ldp	w0, w20, [x27, #28]
  4029d4:	b9007be0 	str	w0, [sp, #120]
  4029d8:	14000013 	b	402a24 <_nl_load_domain+0x3b4>
  4029dc:	aa1603e1 	mov	x1, x22
  4029e0:	aa1b03e0 	mov	x0, x27
  4029e4:	94007193 	bl	41f030 <__munmap>
  4029e8:	17ffffdd 	b	40295c <_nl_load_domain+0x2ec>
  4029ec:	b9401b61 	ldr	w1, [x27, #24]
  4029f0:	b9006af4 	str	w20, [x23, #104]
  4029f4:	5ac00821 	rev	w1, w1
  4029f8:	8b010361 	add	x1, x27, x1
  4029fc:	f90032e1 	str	x1, [x23, #96]
  402a00:	f90047e1 	str	x1, [sp, #136]
  402a04:	34fff180 	cbz	w0, 402834 <_nl_load_domain+0x1c4>
  402a08:	b9402760 	ldr	w0, [x27, #36]
  402a0c:	5ac00815 	rev	w21, w0
  402a10:	34fff120 	cbz	w0, 402834 <_nl_load_domain+0x1c4>
  402a14:	2943d360 	ldp	w0, w20, [x27, #28]
  402a18:	5ac00a94 	rev	w20, w20
  402a1c:	5ac00800 	rev	w0, w0
  402a20:	b9007be0 	str	w0, [sp, #120]
  402a24:	b9407be0 	ldr	w0, [sp, #120]
  402a28:	d2800101 	mov	x1, #0x8                   	// #8
  402a2c:	8b140374 	add	x20, x27, x20
  402a30:	9400591a 	bl	418e98 <__calloc>
  402a34:	aa0003e4 	mov	x4, x0
  402a38:	b4fff860 	cbz	x0, 402944 <_nl_load_domain+0x2d4>
  402a3c:	b9407be0 	ldr	w0, [sp, #120]
  402a40:	34000760 	cbz	w0, 402b2c <_nl_load_domain+0x4bc>
  402a44:	b9407be0 	ldr	w0, [sp, #120]
  402a48:	f0000261 	adrp	x1, 451000 <free_modules_db+0x18>
  402a4c:	f000026b 	adrp	x11, 451000 <free_modules_db+0x18>
  402a50:	912f6032 	add	x18, x1, #0xbd8
  402a54:	51000408 	sub	w8, w0, #0x1
  402a58:	f0000260 	adrp	x0, 451000 <free_modules_db+0x18>
  402a5c:	912ec000 	add	x0, x0, #0xbb0
  402a60:	91000508 	add	x8, x8, #0x1
  402a64:	f90043e0 	str	x0, [sp, #128]
  402a68:	f0000260 	adrp	x0, 451000 <free_modules_db+0x18>
  402a6c:	912f8000 	add	x0, x0, #0xbe0
  402a70:	f9004be0 	str	x0, [sp, #144]
  402a74:	f0000260 	adrp	x0, 451000 <free_modules_db+0x18>
  402a78:	f000026f 	adrp	x15, 451000 <free_modules_db+0x18>
  402a7c:	912ea006 	add	x6, x0, #0xba8
  402a80:	f000026e 	adrp	x14, 451000 <free_modules_db+0x18>
  402a84:	f0000260 	adrp	x0, 451000 <free_modules_db+0x18>
  402a88:	f000026d 	adrp	x13, 451000 <free_modules_db+0x18>
  402a8c:	d0000341 	adrp	x1, 46c000 <__tens+0x2eb0>
  402a90:	f000027e 	adrp	x30, 451000 <free_modules_db+0x18>
  402a94:	52825bc9 	mov	w9, #0x12de                	// #4830
  402a98:	912fc16b 	add	x11, x11, #0xbf0
  402a9c:	912ee1ef 	add	x15, x15, #0xbb8
  402aa0:	912f41ce 	add	x14, x14, #0xbd0
  402aa4:	912f21ad 	add	x13, x13, #0xbc8
  402aa8:	913a0027 	add	x7, x1, #0xe80
  402aac:	912f03de 	add	x30, x30, #0xbc0
  402ab0:	9100128a 	add	x10, x20, #0x4
  402ab4:	d37df108 	lsl	x8, x8, #3
  402ab8:	912e8005 	add	x5, x0, #0xba0
  402abc:	d2800002 	mov	x2, #0x0                   	// #0
  402ac0:	f0000260 	adrp	x0, 451000 <free_modules_db+0x18>
  402ac4:	72b2a089 	movk	w9, #0x9504, lsl #16
  402ac8:	912fa000 	add	x0, x0, #0xbe8
  402acc:	f9004fe0 	str	x0, [sp, #152]
  402ad0:	b8626940 	ldr	w0, [x10, x2]
  402ad4:	6b09031f 	cmp	w24, w9
  402ad8:	b8626a81 	ldr	w1, [x20, x2]
  402adc:	54000c00 	b.eq	402c5c <_nl_load_domain+0x5ec>  // b.none
  402ae0:	5ac00800 	rev	w0, w0
  402ae4:	5ac00821 	rev	w1, w1
  402ae8:	8b000360 	add	x0, x27, x0
  402aec:	34001701 	cbz	w1, 402dcc <_nl_load_domain+0x75c>
  402af0:	51000421 	sub	w1, w1, #0x1
  402af4:	38614801 	ldrb	w1, [x0, w1, uxtw]
  402af8:	350016a1 	cbnz	w1, 402dcc <_nl_load_domain+0x75c>
  402afc:	39400001 	ldrb	w1, [x0]
  402b00:	7101403f 	cmp	w1, #0x50
  402b04:	54000b00 	b.eq	402c64 <_nl_load_domain+0x5f4>  // b.none
  402b08:	7101243f 	cmp	w1, #0x49
  402b0c:	54001681 	b.ne	402ddc <_nl_load_domain+0x76c>  // b.any
  402b10:	39400400 	ldrb	w0, [x0, #1]
  402b14:	7100001f 	cmp	w0, #0x0
  402b18:	9a9f0161 	csel	x1, x11, xzr, eq  // eq = none
  402b1c:	f8226881 	str	x1, [x4, x2]
  402b20:	91002042 	add	x2, x2, #0x8
  402b24:	eb02011f 	cmp	x8, x2
  402b28:	54fffd41 	b.ne	402ad0 <_nl_load_domain+0x460>  // b.any
  402b2c:	52825bc0 	mov	w0, #0x12de                	// #4830
  402b30:	72b2a080 	movk	w0, #0x9504, lsl #16
  402b34:	6b00031f 	cmp	w24, w0
  402b38:	29450760 	ldp	w0, w1, [x27, #40]
  402b3c:	54001920 	b.eq	402e60 <_nl_load_domain+0x7f0>  // b.none
  402b40:	5ac00800 	rev	w0, w0
  402b44:	5ac00821 	rev	w1, w1
  402b48:	8b000362 	add	x2, x27, x0
  402b4c:	f9403be3 	ldr	x3, [sp, #112]
  402b50:	510006a0 	sub	w0, w21, #0x1
  402b54:	8b010361 	add	x1, x27, x1
  402b58:	91000400 	add	x0, x0, #0x1
  402b5c:	a90b73f7 	stp	x23, x28, [sp, #176]
  402b60:	aa0203f7 	mov	x23, x2
  402b64:	d37e7c63 	ubfiz	x3, x3, #2, #32
  402b68:	aa0103fc 	mov	x28, x1
  402b6c:	a90a5be3 	stp	x3, x22, [sp, #160]
  402b70:	aa0403f6 	mov	x22, x4
  402b74:	b9407bf5 	ldr	w21, [sp, #120]
  402b78:	8b000840 	add	x0, x2, x0, lsl #2
  402b7c:	a907eff3 	stp	x19, x27, [sp, #120]
  402b80:	f9004be0 	str	x0, [sp, #144]
  402b84:	b9009bff 	str	wzr, [sp, #152]
  402b88:	a90c07e3 	stp	x3, x1, [sp, #192]
  402b8c:	f9006be2 	str	x2, [sp, #208]
  402b90:	d2800014 	mov	x20, #0x0                   	// #0
  402b94:	52825bc0 	mov	w0, #0x12de                	// #4830
  402b98:	72b2a080 	movk	w0, #0x9504, lsl #16
  402b9c:	6b00031f 	cmp	w24, w0
  402ba0:	54001060 	b.eq	402dac <_nl_load_domain+0x73c>  // b.none
  402ba4:	f100029f 	cmp	x20, #0x0
  402ba8:	9a9c02e0 	csel	x0, x23, x28, eq  // eq = none
  402bac:	b9400001 	ldr	w1, [x0]
  402bb0:	5ac00821 	rev	w1, w1
  402bb4:	f94043e0 	ldr	x0, [sp, #128]
  402bb8:	d2800013 	mov	x19, #0x0                   	// #0
  402bbc:	8b010001 	add	x1, x0, x1
  402bc0:	b9400820 	ldr	w0, [x1, #8]
  402bc4:	3100041f 	cmn	w0, #0x1
  402bc8:	1a9f07e0 	cset	w0, ne  // ne = any
  402bcc:	350010c0 	cbnz	w0, 402de4 <_nl_load_domain+0x774>
  402bd0:	910423e0 	add	x0, sp, #0x108
  402bd4:	f8347813 	str	x19, [x0, x20, lsl #3]
  402bd8:	b4000f14 	cbz	x20, 402db8 <_nl_load_domain+0x748>
  402bdc:	b9409be1 	ldr	w1, [sp, #152]
  402be0:	f94087e0 	ldr	x0, [sp, #264]
  402be4:	11000421 	add	w1, w1, #0x1
  402be8:	b9009be1 	str	w1, [sp, #152]
  402bec:	f9408be1 	ldr	x1, [sp, #272]
  402bf0:	8b010000 	add	x0, x0, x1
  402bf4:	f94053e1 	ldr	x1, [sp, #160]
  402bf8:	8b000020 	add	x0, x1, x0
  402bfc:	f90053e0 	str	x0, [sp, #160]
  402c00:	f9404be0 	ldr	x0, [sp, #144]
  402c04:	910012f7 	add	x23, x23, #0x4
  402c08:	9100139c 	add	x28, x28, #0x4
  402c0c:	eb17001f 	cmp	x0, x23
  402c10:	54fffc01 	b.ne	402b90 <_nl_load_domain+0x520>  // b.any
  402c14:	b9409bf4 	ldr	w20, [sp, #152]
  402c18:	aa1603e4 	mov	x4, x22
  402c1c:	a947eff3 	ldp	x19, x27, [sp, #120]
  402c20:	a94adff6 	ldp	x22, x23, [sp, #168]
  402c24:	f9405ffc 	ldr	x28, [sp, #184]
  402c28:	35002814 	cbnz	w20, 403128 <_nl_load_domain+0xab8>
  402c2c:	b90042ff 	str	wzr, [x23, #64]
  402c30:	a904feff 	stp	xzr, xzr, [x23, #72]
  402c34:	aa0403e0 	mov	x0, x4
  402c38:	940056ee 	bl	4187f0 <__free>
  402c3c:	17ffff00 	b	40283c <_nl_load_domain+0x1cc>
  402c40:	aa1603e1 	mov	x1, x22
  402c44:	aa1b03e0 	mov	x0, x27
  402c48:	940070fa 	bl	41f030 <__munmap>
  402c4c:	b9400721 	ldr	w1, [x25, #4]
  402c50:	a94363f7 	ldp	x23, x24, [sp, #48]
  402c54:	51000421 	sub	w1, w1, #0x1
  402c58:	17ffff10 	b	402898 <_nl_load_domain+0x228>
  402c5c:	8b204360 	add	x0, x27, w0, uxtw
  402c60:	17ffffa3 	b	402aec <_nl_load_domain+0x47c>
  402c64:	3940040c 	ldrb	w12, [x0, #1]
  402c68:	d2800001 	mov	x1, #0x0                   	// #0
  402c6c:	7101499f 	cmp	w12, #0x52
  402c70:	54fff561 	b.ne	402b1c <_nl_load_domain+0x4ac>  // b.any
  402c74:	3940080c 	ldrb	w12, [x0, #2]
  402c78:	7101259f 	cmp	w12, #0x49
  402c7c:	54fff501 	b.ne	402b1c <_nl_load_domain+0x4ac>  // b.any
  402c80:	39400c0c 	ldrb	w12, [x0, #3]
  402c84:	7101919f 	cmp	w12, #0x64
  402c88:	121a7991 	and	w17, w12, #0xffffffdf
  402c8c:	1a9f17f0 	cset	w16, eq  // eq = none
  402c90:	7101a59f 	cmp	w12, #0x69
  402c94:	1a9f1610 	csinc	w16, w16, wzr, ne  // ne = any
  402c98:	7101bd9f 	cmp	w12, #0x6f
  402c9c:	1a9f1603 	csinc	w3, w16, wzr, ne  // ne = any
  402ca0:	7101d59f 	cmp	w12, #0x75
  402ca4:	b900a3e3 	str	w3, [sp, #160]
  402ca8:	1a9f1463 	csinc	w3, w3, wzr, ne  // ne = any
  402cac:	7101623f 	cmp	w17, #0x58
  402cb0:	7a401860 	ccmp	w3, #0x0, #0x0, ne  // ne = any
  402cb4:	54fff340 	b.eq	402b1c <_nl_load_domain+0x4ac>  // b.none
  402cb8:	39401011 	ldrb	w17, [x0, #4]
  402cbc:	7100e23f 	cmp	w17, #0x38
  402cc0:	54001c40 	b.eq	403048 <_nl_load_domain+0x9d8>  // b.none
  402cc4:	7100c63f 	cmp	w17, #0x31
  402cc8:	54001de0 	b.eq	403084 <_nl_load_domain+0xa14>  // b.none
  402ccc:	7100ce3f 	cmp	w17, #0x33
  402cd0:	54000ce1 	b.ne	402e6c <_nl_load_domain+0x7fc>  // b.any
  402cd4:	39401411 	ldrb	w17, [x0, #5]
  402cd8:	7100ca3f 	cmp	w17, #0x32
  402cdc:	54fff201 	b.ne	402b1c <_nl_load_domain+0x4ac>  // b.any
  402ce0:	39401800 	ldrb	w0, [x0, #6]
  402ce4:	35004060 	cbnz	w0, 4034f0 <_nl_load_domain+0xe80>
  402ce8:	7101919f 	cmp	w12, #0x64
  402cec:	54004220 	b.eq	403530 <_nl_load_domain+0xec0>  // b.none
  402cf0:	350041d0 	cbnz	w16, 403528 <_nl_load_domain+0xeb8>
  402cf4:	b940a3e0 	ldr	w0, [sp, #160]
  402cf8:	35004500 	cbnz	w0, 403598 <_nl_load_domain+0xf28>
  402cfc:	350044a3 	cbnz	w3, 403590 <_nl_load_domain+0xf20>
  402d00:	7101e19f 	cmp	w12, #0x78
  402d04:	54004660 	b.eq	4035d0 <_nl_load_domain+0xf60>  // b.none
  402d08:	7101619f 	cmp	w12, #0x58
  402d0c:	54005fc1 	b.ne	403904 <_nl_load_domain+0x1294>  // b.any
  402d10:	90000281 	adrp	x1, 452000 <sigall_set+0x68>
  402d14:	91056021 	add	x1, x1, #0x158
  402d18:	17ffff81 	b	402b1c <_nl_load_domain+0x4ac>
  402d1c:	aa1603e0 	mov	x0, x22
  402d20:	94005542 	bl	418228 <__libc_malloc>
  402d24:	aa0003fb 	mov	x27, x0
  402d28:	b4ffde20 	cbz	x0, 4028ec <_nl_load_domain+0x27c>
  402d2c:	aa0003f8 	mov	x24, x0
  402d30:	aa1603f7 	mov	x23, x22
  402d34:	d0000420 	adrp	x0, 488000 <__FRAME_END__+0xff7c>
  402d38:	f947c800 	ldr	x0, [x0, #3984]
  402d3c:	f9003be0 	str	x0, [sp, #112]
  402d40:	aa1703e2 	mov	x2, x23
  402d44:	aa1803e1 	mov	x1, x24
  402d48:	2a1403e0 	mov	w0, w20
  402d4c:	94007021 	bl	41edd0 <__read_nocancel>
  402d50:	f100001f 	cmp	x0, #0x0
  402d54:	54ffdc0d 	b.le	4028d4 <_nl_load_domain+0x264>
  402d58:	8b000318 	add	x24, x24, x0
  402d5c:	eb0002f7 	subs	x23, x23, x0
  402d60:	54ffff01 	b.ne	402d40 <_nl_load_domain+0x6d0>  // b.any
  402d64:	2a1403e0 	mov	w0, w20
  402d68:	94006f62 	bl	41eaf0 <__close_nocancel>
  402d6c:	b9400378 	ldr	w24, [x27]
  402d70:	52825bc1 	mov	w1, #0x12de                	// #4830
  402d74:	72b2a081 	movk	w1, #0x9504, lsl #16
  402d78:	528092a0 	mov	w0, #0x495                 	// #1173
  402d7c:	6b01031f 	cmp	w24, w1
  402d80:	72bbc240 	movk	w0, #0xde12, lsl #16
  402d84:	1a9f07f4 	cset	w20, ne  // ne = any
  402d88:	7100029f 	cmp	w20, #0x0
  402d8c:	7a401304 	ccmp	w24, w0, #0x4, ne  // ne = any
  402d90:	54ffd060 	b.eq	40279c <_nl_load_domain+0x12c>  // b.none
  402d94:	aa1b03e0 	mov	x0, x27
  402d98:	94005696 	bl	4187f0 <__free>
  402d9c:	b9400721 	ldr	w1, [x25, #4]
  402da0:	a94363f7 	ldp	x23, x24, [sp, #48]
  402da4:	51000421 	sub	w1, w1, #0x1
  402da8:	17fffebc 	b	402898 <_nl_load_domain+0x228>
  402dac:	b4000494 	cbz	x20, 402e3c <_nl_load_domain+0x7cc>
  402db0:	b9400381 	ldr	w1, [x28]
  402db4:	17ffff80 	b	402bb4 <_nl_load_domain+0x544>
  402db8:	d2800034 	mov	x20, #0x1                   	// #1
  402dbc:	17ffff76 	b	402b94 <_nl_load_domain+0x524>
  402dc0:	aa1603e4 	mov	x4, x22
  402dc4:	a947eff3 	ldp	x19, x27, [sp, #120]
  402dc8:	a94adff6 	ldp	x22, x23, [sp, #168]
  402dcc:	aa0403e0 	mov	x0, x4
  402dd0:	94005688 	bl	4187f0 <__free>
  402dd4:	d2800000 	mov	x0, #0x0                   	// #0
  402dd8:	17fffedc 	b	402948 <_nl_load_domain+0x2d8>
  402ddc:	d2800001 	mov	x1, #0x0                   	// #0
  402de0:	17ffff4f 	b	402b1c <_nl_load_domain+0x4ac>
  402de4:	9100103b 	add	x27, x1, #0x4
  402de8:	d2800003 	mov	x3, #0x0                   	// #0
  402dec:	1400000d 	b	402e20 <_nl_load_domain+0x7b0>
  402df0:	5ac00800 	rev	w0, w0
  402df4:	5ac00842 	rev	w2, w2
  402df8:	8b030013 	add	x19, x0, x3
  402dfc:	3100045f 	cmn	w2, #0x1
  402e00:	54ffee80 	b.eq	402bd0 <_nl_load_domain+0x560>  // b.none
  402e04:	6b15005f 	cmp	w2, w21
  402e08:	54fffdc2 	b.cs	402dc0 <_nl_load_domain+0x750>  // b.hs, b.nlast
  402e0c:	f8625ac0 	ldr	x0, [x22, w2, uxtw #3]
  402e10:	b4ffef80 	cbz	x0, 402c00 <_nl_load_domain+0x590>
  402e14:	97fff53b 	bl	400300 <.plt+0x60>
  402e18:	9100237b 	add	x27, x27, #0x8
  402e1c:	8b130003 	add	x3, x0, x19
  402e20:	52825bc0 	mov	w0, #0x12de                	// #4830
  402e24:	72b2a080 	movk	w0, #0x9504, lsl #16
  402e28:	6b00031f 	cmp	w24, w0
  402e2c:	29400b60 	ldp	w0, w2, [x27]
  402e30:	54fffe01 	b.ne	402df0 <_nl_load_domain+0x780>  // b.any
  402e34:	8b204073 	add	x19, x3, w0, uxtw
  402e38:	17fffff1 	b	402dfc <_nl_load_domain+0x78c>
  402e3c:	b94002e1 	ldr	w1, [x23]
  402e40:	17ffff5d 	b	402bb4 <_nl_load_domain+0x544>
  402e44:	f0000260 	adrp	x0, 451000 <free_modules_db+0x18>
  402e48:	f9460000 	ldr	x0, [x0, #3072]
  402e4c:	b4000060 	cbz	x0, 402e58 <_nl_load_domain+0x7e8>
  402e50:	910202e0 	add	x0, x23, #0x80
  402e54:	d503201f 	nop
  402e58:	f94012e0 	ldr	x0, [x23, #32]
  402e5c:	17fffebb 	b	402948 <_nl_load_domain+0x2d8>
  402e60:	8b204362 	add	x2, x27, w0, uxtw
  402e64:	2a0103e1 	mov	w1, w1
  402e68:	17ffff39 	b	402b4c <_nl_load_domain+0x4dc>
  402e6c:	7100da3f 	cmp	w17, #0x36
  402e70:	54000261 	b.ne	402ebc <_nl_load_domain+0x84c>  // b.any
  402e74:	39401411 	ldrb	w17, [x0, #5]
  402e78:	d2800001 	mov	x1, #0x0                   	// #0
  402e7c:	7100d23f 	cmp	w17, #0x34
  402e80:	54ffe4e1 	b.ne	402b1c <_nl_load_domain+0x4ac>  // b.any
  402e84:	39401800 	ldrb	w0, [x0, #6]
  402e88:	35ffe4a0 	cbnz	w0, 402b1c <_nl_load_domain+0x4ac>
  402e8c:	7101919f 	cmp	w12, #0x64
  402e90:	54003580 	b.eq	403540 <_nl_load_domain+0xed0>  // b.none
  402e94:	35003530 	cbnz	w16, 403538 <_nl_load_domain+0xec8>
  402e98:	b940a3e0 	ldr	w0, [sp, #160]
  402e9c:	35003860 	cbnz	w0, 4035a8 <_nl_load_domain+0xf38>
  402ea0:	35003803 	cbnz	w3, 4035a0 <_nl_load_domain+0xf30>
  402ea4:	7101e19f 	cmp	w12, #0x78
  402ea8:	54003680 	b.eq	403578 <_nl_load_domain+0xf08>  // b.none
  402eac:	7101619f 	cmp	w12, #0x58
  402eb0:	540052a1 	b.ne	403904 <_nl_load_domain+0x1294>  // b.any
  402eb4:	aa1203e1 	mov	x1, x18
  402eb8:	17ffff19 	b	402b1c <_nl_load_domain+0x4ac>
  402ebc:	7101323f 	cmp	w17, #0x4c
  402ec0:	540004e1 	b.ne	402f5c <_nl_load_domain+0x8ec>  // b.any
  402ec4:	39401411 	ldrb	w17, [x0, #5]
  402ec8:	d2800001 	mov	x1, #0x0                   	// #0
  402ecc:	7101163f 	cmp	w17, #0x45
  402ed0:	54ffe261 	b.ne	402b1c <_nl_load_domain+0x4ac>  // b.any
  402ed4:	39401811 	ldrb	w17, [x0, #6]
  402ed8:	7101063f 	cmp	w17, #0x41
  402edc:	54ffe201 	b.ne	402b1c <_nl_load_domain+0x4ac>  // b.any
  402ee0:	39401c11 	ldrb	w17, [x0, #7]
  402ee4:	71014e3f 	cmp	w17, #0x53
  402ee8:	54ffe1a1 	b.ne	402b1c <_nl_load_domain+0x4ac>  // b.any
  402eec:	39402011 	ldrb	w17, [x0, #8]
  402ef0:	7101523f 	cmp	w17, #0x54
  402ef4:	54ffe141 	b.ne	402b1c <_nl_load_domain+0x4ac>  // b.any
  402ef8:	39402411 	ldrb	w17, [x0, #9]
  402efc:	7100e23f 	cmp	w17, #0x38
  402f00:	54003ca0 	b.eq	403694 <_nl_load_domain+0x1024>  // b.none
  402f04:	7100c63f 	cmp	w17, #0x31
  402f08:	54003a20 	b.eq	40364c <_nl_load_domain+0xfdc>  // b.none
  402f0c:	7100ce3f 	cmp	w17, #0x33
  402f10:	54003901 	b.ne	403630 <_nl_load_domain+0xfc0>  // b.any
  402f14:	39402811 	ldrb	w17, [x0, #10]
  402f18:	7100ca3f 	cmp	w17, #0x32
  402f1c:	54ffe001 	b.ne	402b1c <_nl_load_domain+0x4ac>  // b.any
  402f20:	39402c00 	ldrb	w0, [x0, #11]
  402f24:	35003820 	cbnz	w0, 403628 <_nl_load_domain+0xfb8>
  402f28:	7101919f 	cmp	w12, #0x64
  402f2c:	540037a0 	b.eq	403620 <_nl_load_domain+0xfb0>  // b.none
  402f30:	35003750 	cbnz	w16, 403618 <_nl_load_domain+0xfa8>
  402f34:	b940a3e0 	ldr	w0, [sp, #160]
  402f38:	350036c0 	cbnz	w0, 403610 <_nl_load_domain+0xfa0>
  402f3c:	35003663 	cbnz	w3, 403608 <_nl_load_domain+0xf98>
  402f40:	7101e19f 	cmp	w12, #0x78
  402f44:	540033e0 	b.eq	4035c0 <_nl_load_domain+0xf50>  // b.none
  402f48:	7101619f 	cmp	w12, #0x58
  402f4c:	54004dc1 	b.ne	403904 <_nl_load_domain+0x1294>  // b.any
  402f50:	90000281 	adrp	x1, 452000 <sigall_set+0x68>
  402f54:	91056021 	add	x1, x1, #0x158
  402f58:	17fffef1 	b	402b1c <_nl_load_domain+0x4ac>
  402f5c:	71011a3f 	cmp	w17, #0x46
  402f60:	54000461 	b.ne	402fec <_nl_load_domain+0x97c>  // b.any
  402f64:	39401411 	ldrb	w17, [x0, #5]
  402f68:	d2800001 	mov	x1, #0x0                   	// #0
  402f6c:	7101063f 	cmp	w17, #0x41
  402f70:	54ffdd61 	b.ne	402b1c <_nl_load_domain+0x4ac>  // b.any
  402f74:	39401811 	ldrb	w17, [x0, #6]
  402f78:	71014e3f 	cmp	w17, #0x53
  402f7c:	54ffdd01 	b.ne	402b1c <_nl_load_domain+0x4ac>  // b.any
  402f80:	39401c11 	ldrb	w17, [x0, #7]
  402f84:	7101523f 	cmp	w17, #0x54
  402f88:	54ffdca1 	b.ne	402b1c <_nl_load_domain+0x4ac>  // b.any
  402f8c:	39402011 	ldrb	w17, [x0, #8]
  402f90:	7100e23f 	cmp	w17, #0x38
  402f94:	540043e0 	b.eq	403810 <_nl_load_domain+0x11a0>  // b.none
  402f98:	7100c63f 	cmp	w17, #0x31
  402f9c:	54004180 	b.eq	4037cc <_nl_load_domain+0x115c>  // b.none
  402fa0:	7100ce3f 	cmp	w17, #0x33
  402fa4:	54004061 	b.ne	4037b0 <_nl_load_domain+0x1140>  // b.any
  402fa8:	39402411 	ldrb	w17, [x0, #9]
  402fac:	7100ca3f 	cmp	w17, #0x32
  402fb0:	54ffdb61 	b.ne	402b1c <_nl_load_domain+0x4ac>  // b.any
  402fb4:	39402800 	ldrb	w0, [x0, #10]
  402fb8:	35003f80 	cbnz	w0, 4037a8 <_nl_load_domain+0x1138>
  402fbc:	7101919f 	cmp	w12, #0x64
  402fc0:	54003f00 	b.eq	4037a0 <_nl_load_domain+0x1130>  // b.none
  402fc4:	35003eb0 	cbnz	w16, 403798 <_nl_load_domain+0x1128>
  402fc8:	b940a3e0 	ldr	w0, [sp, #160]
  402fcc:	35003e20 	cbnz	w0, 403790 <_nl_load_domain+0x1120>
  402fd0:	35003dc3 	cbnz	w3, 403788 <_nl_load_domain+0x1118>
  402fd4:	7101e19f 	cmp	w12, #0x78
  402fd8:	54002f80 	b.eq	4035c8 <_nl_load_domain+0xf58>  // b.none
  402fdc:	7101619f 	cmp	w12, #0x58
  402fe0:	54004921 	b.ne	403904 <_nl_load_domain+0x1294>  // b.any
  402fe4:	aa1203e1 	mov	x1, x18
  402fe8:	17fffecd 	b	402b1c <_nl_load_domain+0x4ac>
  402fec:	7101363f 	cmp	w17, #0x4d
  402ff0:	540006e1 	b.ne	4030cc <_nl_load_domain+0xa5c>  // b.any
  402ff4:	39401411 	ldrb	w17, [x0, #5]
  402ff8:	d2800001 	mov	x1, #0x0                   	// #0
  402ffc:	7101063f 	cmp	w17, #0x41
  403000:	54ffd8e1 	b.ne	402b1c <_nl_load_domain+0x4ac>  // b.any
  403004:	39401811 	ldrb	w17, [x0, #6]
  403008:	7101623f 	cmp	w17, #0x58
  40300c:	54ffd881 	b.ne	402b1c <_nl_load_domain+0x4ac>  // b.any
  403010:	39401c00 	ldrb	w0, [x0, #7]
  403014:	35ffd840 	cbnz	w0, 402b1c <_nl_load_domain+0x4ac>
  403018:	7101919f 	cmp	w12, #0x64
  40301c:	54002aa0 	b.eq	403570 <_nl_load_domain+0xf00>  // b.none
  403020:	35002b50 	cbnz	w16, 403588 <_nl_load_domain+0xf18>
  403024:	b940a3e0 	ldr	w0, [sp, #160]
  403028:	35002ac0 	cbnz	w0, 403580 <_nl_load_domain+0xf10>
  40302c:	35002c63 	cbnz	w3, 4035b8 <_nl_load_domain+0xf48>
  403030:	7101e19f 	cmp	w12, #0x78
  403034:	54002be0 	b.eq	4035b0 <_nl_load_domain+0xf40>  // b.none
  403038:	7101619f 	cmp	w12, #0x58
  40303c:	54004641 	b.ne	403904 <_nl_load_domain+0x1294>  // b.any
  403040:	aa1203e1 	mov	x1, x18
  403044:	17fffeb6 	b	402b1c <_nl_load_domain+0x4ac>
  403048:	39401400 	ldrb	w0, [x0, #5]
  40304c:	35ffd680 	cbnz	w0, 402b1c <_nl_load_domain+0x4ac>
  403050:	7101919f 	cmp	w12, #0x64
  403054:	54002560 	b.eq	403500 <_nl_load_domain+0xe90>  // b.none
  403058:	35002590 	cbnz	w16, 403508 <_nl_load_domain+0xe98>
  40305c:	b940a3e0 	ldr	w0, [sp, #160]
  403060:	35002580 	cbnz	w0, 403510 <_nl_load_domain+0xea0>
  403064:	350025e3 	cbnz	w3, 403520 <_nl_load_domain+0xeb0>
  403068:	7101e19f 	cmp	w12, #0x78
  40306c:	54002560 	b.eq	403518 <_nl_load_domain+0xea8>  // b.none
  403070:	7101619f 	cmp	w12, #0x58
  403074:	54004481 	b.ne	403904 <_nl_load_domain+0x1294>  // b.any
  403078:	f0000261 	adrp	x1, 452000 <sigall_set+0x68>
  40307c:	91056021 	add	x1, x1, #0x158
  403080:	17fffea7 	b	402b1c <_nl_load_domain+0x4ac>
  403084:	39401411 	ldrb	w17, [x0, #5]
  403088:	7100da3f 	cmp	w17, #0x36
  40308c:	54ffd481 	b.ne	402b1c <_nl_load_domain+0x4ac>  // b.any
  403090:	39401800 	ldrb	w0, [x0, #6]
  403094:	35002320 	cbnz	w0, 4034f8 <_nl_load_domain+0xe88>
  403098:	7101919f 	cmp	w12, #0x64
  40309c:	54002560 	b.eq	403548 <_nl_load_domain+0xed8>  // b.none
  4030a0:	350025d0 	cbnz	w16, 403558 <_nl_load_domain+0xee8>
  4030a4:	b940a3e0 	ldr	w0, [sp, #160]
  4030a8:	35002540 	cbnz	w0, 403550 <_nl_load_domain+0xee0>
  4030ac:	350025e3 	cbnz	w3, 403568 <_nl_load_domain+0xef8>
  4030b0:	7101e19f 	cmp	w12, #0x78
  4030b4:	54002560 	b.eq	403560 <_nl_load_domain+0xef0>  // b.none
  4030b8:	7101619f 	cmp	w12, #0x58
  4030bc:	54004241 	b.ne	403904 <_nl_load_domain+0x1294>  // b.any
  4030c0:	f0000261 	adrp	x1, 452000 <sigall_set+0x68>
  4030c4:	91056021 	add	x1, x1, #0x158
  4030c8:	17fffe95 	b	402b1c <_nl_load_domain+0x4ac>
  4030cc:	7101423f 	cmp	w17, #0x50
  4030d0:	54002981 	b.ne	403600 <_nl_load_domain+0xf90>  // b.any
  4030d4:	39401411 	ldrb	w17, [x0, #5]
  4030d8:	d2800001 	mov	x1, #0x0                   	// #0
  4030dc:	7101523f 	cmp	w17, #0x54
  4030e0:	54ffd1e1 	b.ne	402b1c <_nl_load_domain+0x4ac>  // b.any
  4030e4:	39401811 	ldrb	w17, [x0, #6]
  4030e8:	71014a3f 	cmp	w17, #0x52
  4030ec:	54ffd181 	b.ne	402b1c <_nl_load_domain+0x4ac>  // b.any
  4030f0:	39401c00 	ldrb	w0, [x0, #7]
  4030f4:	35ffd140 	cbnz	w0, 402b1c <_nl_load_domain+0x4ac>
  4030f8:	7101919f 	cmp	w12, #0x64
  4030fc:	540027e0 	b.eq	4035f8 <_nl_load_domain+0xf88>  // b.none
  403100:	35002790 	cbnz	w16, 4035f0 <_nl_load_domain+0xf80>
  403104:	b940a3e0 	ldr	w0, [sp, #160]
  403108:	35002700 	cbnz	w0, 4035e8 <_nl_load_domain+0xf78>
  40310c:	350026a3 	cbnz	w3, 4035e0 <_nl_load_domain+0xf70>
  403110:	7101e19f 	cmp	w12, #0x78
  403114:	54002620 	b.eq	4035d8 <_nl_load_domain+0xf68>  // b.none
  403118:	7101619f 	cmp	w12, #0x58
  40311c:	54003f41 	b.ne	403904 <_nl_load_domain+0x1294>  // b.any
  403120:	aa1203e1 	mov	x1, x18
  403124:	17fffe7e 	b	402b1c <_nl_load_domain+0x4ac>
  403128:	f94053e1 	ldr	x1, [sp, #160]
  40312c:	531f7a80 	lsl	w0, w20, #1
  403130:	f9003fe4 	str	x4, [sp, #120]
  403134:	8b205020 	add	x0, x1, w0, uxtw #4
  403138:	9400543c 	bl	418228 <__libc_malloc>
  40313c:	f90053e0 	str	x0, [sp, #160]
  403140:	b4ffc020 	cbz	x0, 402944 <_nl_load_domain+0x2d4>
  403144:	d37c7e88 	ubfiz	x8, x20, #4, #32
  403148:	f90012e0 	str	x0, [x23, #32]
  40314c:	8b080001 	add	x1, x0, x8
  403150:	f9007ff3 	str	x19, [sp, #248]
  403154:	8b080408 	add	x8, x0, x8, lsl #1
  403158:	52825bc9 	mov	w9, #0x12de                	// #4830
  40315c:	f94063e0 	ldr	x0, [sp, #192]
  403160:	a90ea3f7 	stp	x23, x8, [sp, #232]
  403164:	72b2a089 	movk	w9, #0x9504, lsl #16
  403168:	f9403fe4 	ldr	x4, [sp, #120]
  40316c:	8b000115 	add	x21, x8, x0
  403170:	f9406bf3 	ldr	x19, [sp, #208]
  403174:	f9006bfc 	str	x28, [sp, #208]
  403178:	2a1803fc 	mov	w28, w24
  40317c:	aa1503f8 	mov	x24, x21
  403180:	f94067f5 	ldr	x21, [sp, #200]
  403184:	aa0403f7 	mov	x23, x4
  403188:	b90083ff 	str	wzr, [sp, #128]
  40318c:	a90ddbe1 	stp	x1, x22, [sp, #216]
  403190:	5280000a 	mov	w10, #0x0                   	// #0
  403194:	6b09039f 	cmp	w28, w9
  403198:	54001560 	b.eq	403444 <_nl_load_domain+0xdd4>  // b.none
  40319c:	7100015f 	cmp	w10, #0x0
  4031a0:	9a950260 	csel	x0, x19, x21, eq  // eq = none
  4031a4:	b9400001 	ldr	w1, [x0]
  4031a8:	5ac00821 	rev	w1, w1
  4031ac:	8b010361 	add	x1, x27, x1
  4031b0:	b9400820 	ldr	w0, [x1, #8]
  4031b4:	3100041f 	cmn	w0, #0x1
  4031b8:	1a9f07e0 	cset	w0, ne  // ne = any
  4031bc:	35000480 	cbnz	w0, 40324c <_nl_load_domain+0xbdc>
  4031c0:	3400152a 	cbz	w10, 403464 <_nl_load_domain+0xdf4>
  4031c4:	f94043e0 	ldr	x0, [sp, #128]
  4031c8:	a90acff5 	stp	x21, x19, [sp, #168]
  4031cc:	aa1803f3 	mov	x19, x24
  4031d0:	b9007bff 	str	wzr, [sp, #120]
  4031d4:	d37c7c14 	ubfiz	x20, x0, #4, #32
  4031d8:	f94053e0 	ldr	x0, [sp, #160]
  4031dc:	8b140000 	add	x0, x0, x20
  4031e0:	f90063e0 	str	x0, [sp, #192]
  4031e4:	f9406fe0 	ldr	x0, [sp, #216]
  4031e8:	8b140000 	add	x0, x0, x20
  4031ec:	f9005fe0 	str	x0, [sp, #184]
  4031f0:	b9407be0 	ldr	w0, [sp, #120]
  4031f4:	6b09039f 	cmp	w28, w9
  4031f8:	54000420 	b.eq	40327c <_nl_load_domain+0xc0c>  // b.none
  4031fc:	34001560 	cbz	w0, 4034a8 <_nl_load_domain+0xe38>
  403200:	f94057e0 	ldr	x0, [sp, #168]
  403204:	f9405ff6 	ldr	x22, [sp, #184]
  403208:	b9400000 	ldr	w0, [x0]
  40320c:	5ac00801 	rev	w1, w0
  403210:	5ac00800 	rev	w0, w0
  403214:	8b000360 	add	x0, x27, x0
  403218:	b8614b74 	ldr	w20, [x27, w1, uxtw]
  40321c:	5ac00a94 	rev	w20, w20
  403220:	8b140374 	add	x20, x27, x20
  403224:	29408801 	ldp	w1, w2, [x0, #4]
  403228:	3100045f 	cmn	w2, #0x1
  40322c:	5ac00821 	rev	w1, w1
  403230:	540003a1 	b.ne	4032a4 <_nl_load_domain+0xc34>  // b.any
  403234:	a90052c1 	stp	x1, x20, [x22]
  403238:	b9407be0 	ldr	w0, [sp, #120]
  40323c:	35000600 	cbnz	w0, 4032fc <_nl_load_domain+0xc8c>
  403240:	52800020 	mov	w0, #0x1                   	// #1
  403244:	b9007be0 	str	w0, [sp, #120]
  403248:	17ffffea 	b	4031f0 <_nl_load_domain+0xb80>
  40324c:	91001021 	add	x1, x1, #0x4
  403250:	14000004 	b	403260 <_nl_load_domain+0xbf0>
  403254:	f8605ae0 	ldr	x0, [x23, w0, uxtw #3]
  403258:	b40005c0 	cbz	x0, 403310 <_nl_load_domain+0xca0>
  40325c:	91002021 	add	x1, x1, #0x8
  403260:	b9400420 	ldr	w0, [x1, #4]
  403264:	6b09039f 	cmp	w28, w9
  403268:	5ac00802 	rev	w2, w0
  40326c:	1a801040 	csel	w0, w2, w0, ne  // ne = any
  403270:	3100041f 	cmn	w0, #0x1
  403274:	54ffff01 	b.ne	403254 <_nl_load_domain+0xbe4>  // b.any
  403278:	17ffffd2 	b	4031c0 <_nl_load_domain+0xb50>
  40327c:	34001280 	cbz	w0, 4034cc <_nl_load_domain+0xe5c>
  403280:	f94057e0 	ldr	x0, [sp, #168]
  403284:	f9405ff6 	ldr	x22, [sp, #184]
  403288:	b9400001 	ldr	w1, [x0]
  40328c:	8b010360 	add	x0, x27, x1
  403290:	b8616b74 	ldr	w20, [x27, x1]
  403294:	8b140374 	add	x20, x27, x20
  403298:	29408801 	ldp	w1, w2, [x0, #4]
  40329c:	3100045f 	cmn	w2, #0x1
  4032a0:	54fffca0 	b.eq	403234 <_nl_load_domain+0xbc4>  // b.none
  4032a4:	91001018 	add	x24, x0, #0x4
  4032a8:	f90006d3 	str	x19, [x22, #8]
  4032ac:	29405700 	ldp	w0, w21, [x24]
  4032b0:	6b09039f 	cmp	w28, w9
  4032b4:	54000060 	b.eq	4032c0 <_nl_load_domain+0xc50>  // b.none
  4032b8:	5ac00800 	rev	w0, w0
  4032bc:	5ac00ab5 	rev	w21, w21
  4032c0:	35000d60 	cbnz	w0, 40346c <_nl_load_domain+0xdfc>
  4032c4:	310006bf 	cmn	w21, #0x1
  4032c8:	54000e80 	b.eq	403498 <_nl_load_domain+0xe28>  // b.none
  4032cc:	f8755af5 	ldr	x21, [x23, w21, uxtw #3]
  4032d0:	91002318 	add	x24, x24, #0x8
  4032d4:	aa1503e0 	mov	x0, x21
  4032d8:	97fff40a 	bl	400300 <.plt+0x60>
  4032dc:	aa0003e2 	mov	x2, x0
  4032e0:	aa1503e1 	mov	x1, x21
  4032e4:	aa1303e0 	mov	x0, x19
  4032e8:	8b020273 	add	x19, x19, x2
  4032ec:	97fff3f1 	bl	4002b0 <.plt+0x10>
  4032f0:	52825bc9 	mov	w9, #0x12de                	// #4830
  4032f4:	72b2a089 	movk	w9, #0x9504, lsl #16
  4032f8:	17ffffed 	b	4032ac <_nl_load_domain+0xc3c>
  4032fc:	aa1303f8 	mov	x24, x19
  403300:	b94083e0 	ldr	w0, [sp, #128]
  403304:	a94acff5 	ldp	x21, x19, [sp, #168]
  403308:	11000400 	add	w0, w0, #0x1
  40330c:	b90083e0 	str	w0, [sp, #128]
  403310:	f9404be0 	ldr	x0, [sp, #144]
  403314:	91001273 	add	x19, x19, #0x4
  403318:	910012b5 	add	x21, x21, #0x4
  40331c:	eb13001f 	cmp	x0, x19
  403320:	54fff381 	b.ne	403190 <_nl_load_domain+0xb20>  // b.any
  403324:	b94083e1 	ldr	w1, [sp, #128]
  403328:	2a1c03f8 	mov	w24, w28
  40332c:	b9409be0 	ldr	w0, [sp, #152]
  403330:	aa1703e4 	mov	x4, x23
  403334:	f9406bfc 	ldr	x28, [sp, #208]
  403338:	6b01001f 	cmp	w0, w1
  40333c:	a94e5ff6 	ldp	x22, x23, [sp, #224]
  403340:	a94f4fe8 	ldp	x8, x19, [sp, #240]
  403344:	54002e01 	b.ne	403904 <_nl_load_domain+0x1294>  // b.any
  403348:	b94073e5 	ldr	w5, [sp, #112]
  40334c:	52825bc9 	mov	w9, #0x12de                	// #4830
  403350:	f94047e3 	ldr	x3, [sp, #136]
  403354:	d2800000 	mov	x0, #0x0                   	// #0
  403358:	72b2a089 	movk	w9, #0x9504, lsl #16
  40335c:	b8607861 	ldr	w1, [x3, x0, lsl #2]
  403360:	6b09031f 	cmp	w24, w9
  403364:	5ac00822 	rev	w2, w1
  403368:	1a811041 	csel	w1, w2, w1, ne  // ne = any
  40336c:	b8207901 	str	w1, [x8, x0, lsl #2]
  403370:	91000400 	add	x0, x0, #0x1
  403374:	6b0000bf 	cmp	w5, w0
  403378:	54ffff28 	b.hi	40335c <_nl_load_domain+0xcec>  // b.pmore
  40337c:	f94053e0 	ldr	x0, [sp, #160]
  403380:	52800014 	mov	w20, #0x0                   	// #0
  403384:	b9409bf8 	ldr	w24, [sp, #152]
  403388:	91002015 	add	x21, x0, #0x8
  40338c:	a9074fe4 	stp	x4, x19, [sp, #112]
  403390:	aa1703f3 	mov	x19, x23
  403394:	2a1403f7 	mov	w23, w20
  403398:	aa1503f4 	mov	x20, x21
  40339c:	aa0803f5 	mov	x21, x8
  4033a0:	f9400280 	ldr	x0, [x20]
  4033a4:	94000783 	bl	4051b0 <__hash_string>
  4033a8:	b9405a64 	ldr	w4, [x19, #88]
  4033ac:	51000882 	sub	w2, w4, #0x2
  4033b0:	1ac40801 	udiv	w1, w0, w4
  4033b4:	1ac20803 	udiv	w3, w0, w2
  4033b8:	1b048021 	msub	w1, w1, w4, w0
  4033bc:	1b028063 	msub	w3, w3, w2, w0
  4033c0:	8b214aa2 	add	x2, x21, w1, uxtw #2
  4033c4:	b8615aa0 	ldr	w0, [x21, w1, uxtw #2]
  4033c8:	11000463 	add	w3, w3, #0x1
  4033cc:	4b030085 	sub	w5, w4, w3
  4033d0:	4b040064 	sub	w4, w3, w4
  4033d4:	34000120 	cbz	w0, 4033f8 <_nl_load_domain+0xd88>
  4033d8:	0b040022 	add	w2, w1, w4
  4033dc:	6b0100bf 	cmp	w5, w1
  4033e0:	0b030021 	add	w1, w1, w3
  4033e4:	1a828020 	csel	w0, w1, w2, hi  // hi = pmore
  4033e8:	1a828021 	csel	w1, w1, w2, hi  // hi = pmore
  4033ec:	8b000aa2 	add	x2, x21, x0, lsl #2
  4033f0:	b8607aa0 	ldr	w0, [x21, x0, lsl #2]
  4033f4:	35ffff20 	cbnz	w0, 4033d8 <_nl_load_domain+0xd68>
  4033f8:	b9402a60 	ldr	w0, [x19, #40]
  4033fc:	91004294 	add	x20, x20, #0x10
  403400:	11000400 	add	w0, w0, #0x1
  403404:	0b170000 	add	w0, w0, w23
  403408:	b9000040 	str	w0, [x2]
  40340c:	110006f7 	add	w23, w23, #0x1
  403410:	6b17031f 	cmp	w24, w23
  403414:	54fffc61 	b.ne	4033a0 <_nl_load_domain+0xd30>  // b.any
  403418:	aa1303f7 	mov	x23, x19
  40341c:	b9409be0 	ldr	w0, [sp, #152]
  403420:	a9474fe4 	ldp	x4, x19, [sp, #112]
  403424:	b90042e0 	str	w0, [x23, #64]
  403428:	f94053e0 	ldr	x0, [sp, #160]
  40342c:	f90026e0 	str	x0, [x23, #72]
  403430:	f9406fe0 	ldr	x0, [sp, #216]
  403434:	f9002ae0 	str	x0, [x23, #80]
  403438:	f90032f5 	str	x21, [x23, #96]
  40343c:	b9006aff 	str	wzr, [x23, #104]
  403440:	17fffdfd 	b	402c34 <_nl_load_domain+0x5c4>
  403444:	3400026a 	cbz	w10, 403490 <_nl_load_domain+0xe20>
  403448:	b94002a1 	ldr	w1, [x21]
  40344c:	8b010361 	add	x1, x27, x1
  403450:	b9400820 	ldr	w0, [x1, #8]
  403454:	3100041f 	cmn	w0, #0x1
  403458:	1a9f07e0 	cset	w0, ne  // ne = any
  40345c:	34ffeb20 	cbz	w0, 4031c0 <_nl_load_domain+0xb50>
  403460:	17ffff7b 	b	40324c <_nl_load_domain+0xbdc>
  403464:	5280002a 	mov	w10, #0x1                   	// #1
  403468:	17ffff4b 	b	403194 <_nl_load_domain+0xb24>
  40346c:	2a0003e2 	mov	w2, w0
  403470:	aa1403e1 	mov	x1, x20
  403474:	aa1303e0 	mov	x0, x19
  403478:	8b020294 	add	x20, x20, x2
  40347c:	8b020273 	add	x19, x19, x2
  403480:	97fff38c 	bl	4002b0 <.plt+0x10>
  403484:	52825bc9 	mov	w9, #0x12de                	// #4830
  403488:	72b2a089 	movk	w9, #0x9504, lsl #16
  40348c:	17ffff8e 	b	4032c4 <_nl_load_domain+0xc54>
  403490:	b9400261 	ldr	w1, [x19]
  403494:	17ffffee 	b	40344c <_nl_load_domain+0xddc>
  403498:	f94006c0 	ldr	x0, [x22, #8]
  40349c:	cb000260 	sub	x0, x19, x0
  4034a0:	f90002c0 	str	x0, [x22]
  4034a4:	17ffff65 	b	403238 <_nl_load_domain+0xbc8>
  4034a8:	f9405be0 	ldr	x0, [sp, #176]
  4034ac:	f94063f6 	ldr	x22, [sp, #192]
  4034b0:	b9400001 	ldr	w1, [x0]
  4034b4:	5ac00821 	rev	w1, w1
  4034b8:	8b010360 	add	x0, x27, x1
  4034bc:	b8616b74 	ldr	w20, [x27, x1]
  4034c0:	5ac00a94 	rev	w20, w20
  4034c4:	8b140374 	add	x20, x27, x20
  4034c8:	17ffff57 	b	403224 <_nl_load_domain+0xbb4>
  4034cc:	f9405be0 	ldr	x0, [sp, #176]
  4034d0:	f94063f6 	ldr	x22, [sp, #192]
  4034d4:	b9400001 	ldr	w1, [x0]
  4034d8:	8b010360 	add	x0, x27, x1
  4034dc:	b8616b74 	ldr	w20, [x27, x1]
  4034e0:	8b140374 	add	x20, x27, x20
  4034e4:	17ffff6d 	b	403298 <_nl_load_domain+0xc28>
  4034e8:	a90363f7 	stp	x23, x24, [sp, #48]
  4034ec:	94007459 	bl	420650 <__stack_chk_fail>
  4034f0:	d2800001 	mov	x1, #0x0                   	// #0
  4034f4:	17fffd8a 	b	402b1c <_nl_load_domain+0x4ac>
  4034f8:	d2800001 	mov	x1, #0x0                   	// #0
  4034fc:	17fffd88 	b	402b1c <_nl_load_domain+0x4ac>
  403500:	aa0703e1 	mov	x1, x7
  403504:	17fffd86 	b	402b1c <_nl_load_domain+0x4ac>
  403508:	aa0603e1 	mov	x1, x6
  40350c:	17fffd84 	b	402b1c <_nl_load_domain+0x4ac>
  403510:	aa0503e1 	mov	x1, x5
  403514:	17fffd82 	b	402b1c <_nl_load_domain+0x4ac>
  403518:	f9404fe1 	ldr	x1, [sp, #152]
  40351c:	17fffd80 	b	402b1c <_nl_load_domain+0x4ac>
  403520:	aa1e03e1 	mov	x1, x30
  403524:	17fffd7e 	b	402b1c <_nl_load_domain+0x4ac>
  403528:	aa0603e1 	mov	x1, x6
  40352c:	17fffd7c 	b	402b1c <_nl_load_domain+0x4ac>
  403530:	aa0703e1 	mov	x1, x7
  403534:	17fffd7a 	b	402b1c <_nl_load_domain+0x4ac>
  403538:	aa0e03e1 	mov	x1, x14
  40353c:	17fffd78 	b	402b1c <_nl_load_domain+0x4ac>
  403540:	aa0f03e1 	mov	x1, x15
  403544:	17fffd76 	b	402b1c <_nl_load_domain+0x4ac>
  403548:	aa0703e1 	mov	x1, x7
  40354c:	17fffd74 	b	402b1c <_nl_load_domain+0x4ac>
  403550:	aa0503e1 	mov	x1, x5
  403554:	17fffd72 	b	402b1c <_nl_load_domain+0x4ac>
  403558:	aa0603e1 	mov	x1, x6
  40355c:	17fffd70 	b	402b1c <_nl_load_domain+0x4ac>
  403560:	f9404fe1 	ldr	x1, [sp, #152]
  403564:	17fffd6e 	b	402b1c <_nl_load_domain+0x4ac>
  403568:	aa1e03e1 	mov	x1, x30
  40356c:	17fffd6c 	b	402b1c <_nl_load_domain+0x4ac>
  403570:	aa0f03e1 	mov	x1, x15
  403574:	17fffd6a 	b	402b1c <_nl_load_domain+0x4ac>
  403578:	f9404be1 	ldr	x1, [sp, #144]
  40357c:	17fffd68 	b	402b1c <_nl_load_domain+0x4ac>
  403580:	aa0d03e1 	mov	x1, x13
  403584:	17fffd66 	b	402b1c <_nl_load_domain+0x4ac>
  403588:	aa0e03e1 	mov	x1, x14
  40358c:	17fffd64 	b	402b1c <_nl_load_domain+0x4ac>
  403590:	aa1e03e1 	mov	x1, x30
  403594:	17fffd62 	b	402b1c <_nl_load_domain+0x4ac>
  403598:	aa0503e1 	mov	x1, x5
  40359c:	17fffd60 	b	402b1c <_nl_load_domain+0x4ac>
  4035a0:	f94043e1 	ldr	x1, [sp, #128]
  4035a4:	17fffd5e 	b	402b1c <_nl_load_domain+0x4ac>
  4035a8:	aa0d03e1 	mov	x1, x13
  4035ac:	17fffd5c 	b	402b1c <_nl_load_domain+0x4ac>
  4035b0:	f9404be1 	ldr	x1, [sp, #144]
  4035b4:	17fffd5a 	b	402b1c <_nl_load_domain+0x4ac>
  4035b8:	f94043e1 	ldr	x1, [sp, #128]
  4035bc:	17fffd58 	b	402b1c <_nl_load_domain+0x4ac>
  4035c0:	f9404fe1 	ldr	x1, [sp, #152]
  4035c4:	17fffd56 	b	402b1c <_nl_load_domain+0x4ac>
  4035c8:	f9404be1 	ldr	x1, [sp, #144]
  4035cc:	17fffd54 	b	402b1c <_nl_load_domain+0x4ac>
  4035d0:	f9404fe1 	ldr	x1, [sp, #152]
  4035d4:	17fffd52 	b	402b1c <_nl_load_domain+0x4ac>
  4035d8:	f9404be1 	ldr	x1, [sp, #144]
  4035dc:	17fffd50 	b	402b1c <_nl_load_domain+0x4ac>
  4035e0:	f94043e1 	ldr	x1, [sp, #128]
  4035e4:	17fffd4e 	b	402b1c <_nl_load_domain+0x4ac>
  4035e8:	aa0d03e1 	mov	x1, x13
  4035ec:	17fffd4c 	b	402b1c <_nl_load_domain+0x4ac>
  4035f0:	aa0e03e1 	mov	x1, x14
  4035f4:	17fffd4a 	b	402b1c <_nl_load_domain+0x4ac>
  4035f8:	aa0f03e1 	mov	x1, x15
  4035fc:	17fffd48 	b	402b1c <_nl_load_domain+0x4ac>
  403600:	d2800001 	mov	x1, #0x0                   	// #0
  403604:	17fffd46 	b	402b1c <_nl_load_domain+0x4ac>
  403608:	aa1e03e1 	mov	x1, x30
  40360c:	17fffd44 	b	402b1c <_nl_load_domain+0x4ac>
  403610:	aa0503e1 	mov	x1, x5
  403614:	17fffd42 	b	402b1c <_nl_load_domain+0x4ac>
  403618:	aa0603e1 	mov	x1, x6
  40361c:	17fffd40 	b	402b1c <_nl_load_domain+0x4ac>
  403620:	aa0703e1 	mov	x1, x7
  403624:	17fffd3e 	b	402b1c <_nl_load_domain+0x4ac>
  403628:	d2800001 	mov	x1, #0x0                   	// #0
  40362c:	17fffd3c 	b	402b1c <_nl_load_domain+0x4ac>
  403630:	7100da3f 	cmp	w17, #0x36
  403634:	54ffa741 	b.ne	402b1c <_nl_load_domain+0x4ac>  // b.any
  403638:	39402801 	ldrb	w1, [x0, #10]
  40363c:	7100d03f 	cmp	w1, #0x34
  403640:	54000480 	b.eq	4036d0 <_nl_load_domain+0x1060>  // b.none
  403644:	d2800001 	mov	x1, #0x0                   	// #0
  403648:	17fffd35 	b	402b1c <_nl_load_domain+0x4ac>
  40364c:	39402811 	ldrb	w17, [x0, #10]
  403650:	7100da3f 	cmp	w17, #0x36
  403654:	54ffa641 	b.ne	402b1c <_nl_load_domain+0x4ac>  // b.any
  403658:	39402c00 	ldrb	w0, [x0, #11]
  40365c:	35ffa600 	cbnz	w0, 402b1c <_nl_load_domain+0x4ac>
  403660:	7101919f 	cmp	w12, #0x64
  403664:	540008e0 	b.eq	403780 <_nl_load_domain+0x1110>  // b.none
  403668:	35000890 	cbnz	w16, 403778 <_nl_load_domain+0x1108>
  40366c:	b940a3e0 	ldr	w0, [sp, #160]
  403670:	35000800 	cbnz	w0, 403770 <_nl_load_domain+0x1100>
  403674:	350007a3 	cbnz	w3, 403768 <_nl_load_domain+0x10f8>
  403678:	7101e19f 	cmp	w12, #0x78
  40367c:	54000460 	b.eq	403708 <_nl_load_domain+0x1098>  // b.none
  403680:	7101619f 	cmp	w12, #0x58
  403684:	54001401 	b.ne	403904 <_nl_load_domain+0x1294>  // b.any
  403688:	f0000261 	adrp	x1, 452000 <sigall_set+0x68>
  40368c:	91056021 	add	x1, x1, #0x158
  403690:	17fffd23 	b	402b1c <_nl_load_domain+0x4ac>
  403694:	39402800 	ldrb	w0, [x0, #10]
  403698:	35ffa420 	cbnz	w0, 402b1c <_nl_load_domain+0x4ac>
  40369c:	7101919f 	cmp	w12, #0x64
  4036a0:	54000600 	b.eq	403760 <_nl_load_domain+0x10f0>  // b.none
  4036a4:	350005b0 	cbnz	w16, 403758 <_nl_load_domain+0x10e8>
  4036a8:	b940a3e0 	ldr	w0, [sp, #160]
  4036ac:	35000520 	cbnz	w0, 403750 <_nl_load_domain+0x10e0>
  4036b0:	350004c3 	cbnz	w3, 403748 <_nl_load_domain+0x10d8>
  4036b4:	7101e19f 	cmp	w12, #0x78
  4036b8:	540002c0 	b.eq	403710 <_nl_load_domain+0x10a0>  // b.none
  4036bc:	7101619f 	cmp	w12, #0x58
  4036c0:	54001221 	b.ne	403904 <_nl_load_domain+0x1294>  // b.any
  4036c4:	f0000261 	adrp	x1, 452000 <sigall_set+0x68>
  4036c8:	91056021 	add	x1, x1, #0x158
  4036cc:	17fffd14 	b	402b1c <_nl_load_domain+0x4ac>
  4036d0:	39402c00 	ldrb	w0, [x0, #11]
  4036d4:	35000360 	cbnz	w0, 403740 <_nl_load_domain+0x10d0>
  4036d8:	7101919f 	cmp	w12, #0x64
  4036dc:	540002e0 	b.eq	403738 <_nl_load_domain+0x10c8>  // b.none
  4036e0:	35000290 	cbnz	w16, 403730 <_nl_load_domain+0x10c0>
  4036e4:	b940a3e0 	ldr	w0, [sp, #160]
  4036e8:	35000200 	cbnz	w0, 403728 <_nl_load_domain+0x10b8>
  4036ec:	350001a3 	cbnz	w3, 403720 <_nl_load_domain+0x10b0>
  4036f0:	7101e19f 	cmp	w12, #0x78
  4036f4:	54000120 	b.eq	403718 <_nl_load_domain+0x10a8>  // b.none
  4036f8:	7101619f 	cmp	w12, #0x58
  4036fc:	54001041 	b.ne	403904 <_nl_load_domain+0x1294>  // b.any
  403700:	aa1203e1 	mov	x1, x18
  403704:	17fffd06 	b	402b1c <_nl_load_domain+0x4ac>
  403708:	f9404fe1 	ldr	x1, [sp, #152]
  40370c:	17fffd04 	b	402b1c <_nl_load_domain+0x4ac>
  403710:	f9404fe1 	ldr	x1, [sp, #152]
  403714:	17fffd02 	b	402b1c <_nl_load_domain+0x4ac>
  403718:	f9404be1 	ldr	x1, [sp, #144]
  40371c:	17fffd00 	b	402b1c <_nl_load_domain+0x4ac>
  403720:	f94043e1 	ldr	x1, [sp, #128]
  403724:	17fffcfe 	b	402b1c <_nl_load_domain+0x4ac>
  403728:	aa0d03e1 	mov	x1, x13
  40372c:	17fffcfc 	b	402b1c <_nl_load_domain+0x4ac>
  403730:	aa0e03e1 	mov	x1, x14
  403734:	17fffcfa 	b	402b1c <_nl_load_domain+0x4ac>
  403738:	aa0f03e1 	mov	x1, x15
  40373c:	17fffcf8 	b	402b1c <_nl_load_domain+0x4ac>
  403740:	d2800001 	mov	x1, #0x0                   	// #0
  403744:	17fffcf6 	b	402b1c <_nl_load_domain+0x4ac>
  403748:	aa1e03e1 	mov	x1, x30
  40374c:	17fffcf4 	b	402b1c <_nl_load_domain+0x4ac>
  403750:	aa0503e1 	mov	x1, x5
  403754:	17fffcf2 	b	402b1c <_nl_load_domain+0x4ac>
  403758:	aa0603e1 	mov	x1, x6
  40375c:	17fffcf0 	b	402b1c <_nl_load_domain+0x4ac>
  403760:	aa0703e1 	mov	x1, x7
  403764:	17fffcee 	b	402b1c <_nl_load_domain+0x4ac>
  403768:	aa1e03e1 	mov	x1, x30
  40376c:	17fffcec 	b	402b1c <_nl_load_domain+0x4ac>
  403770:	aa0503e1 	mov	x1, x5
  403774:	17fffcea 	b	402b1c <_nl_load_domain+0x4ac>
  403778:	aa0603e1 	mov	x1, x6
  40377c:	17fffce8 	b	402b1c <_nl_load_domain+0x4ac>
  403780:	aa0703e1 	mov	x1, x7
  403784:	17fffce6 	b	402b1c <_nl_load_domain+0x4ac>
  403788:	f94043e1 	ldr	x1, [sp, #128]
  40378c:	17fffce4 	b	402b1c <_nl_load_domain+0x4ac>
  403790:	aa0d03e1 	mov	x1, x13
  403794:	17fffce2 	b	402b1c <_nl_load_domain+0x4ac>
  403798:	aa0e03e1 	mov	x1, x14
  40379c:	17fffce0 	b	402b1c <_nl_load_domain+0x4ac>
  4037a0:	aa0f03e1 	mov	x1, x15
  4037a4:	17fffcde 	b	402b1c <_nl_load_domain+0x4ac>
  4037a8:	d2800001 	mov	x1, #0x0                   	// #0
  4037ac:	17fffcdc 	b	402b1c <_nl_load_domain+0x4ac>
  4037b0:	7100da3f 	cmp	w17, #0x36
  4037b4:	54ff9b41 	b.ne	402b1c <_nl_load_domain+0x4ac>  // b.any
  4037b8:	39402401 	ldrb	w1, [x0, #9]
  4037bc:	7100d03f 	cmp	w1, #0x34
  4037c0:	54000460 	b.eq	40384c <_nl_load_domain+0x11dc>  // b.none
  4037c4:	d2800001 	mov	x1, #0x0                   	// #0
  4037c8:	17fffcd5 	b	402b1c <_nl_load_domain+0x4ac>
  4037cc:	39402411 	ldrb	w17, [x0, #9]
  4037d0:	7100da3f 	cmp	w17, #0x36
  4037d4:	54ff9a41 	b.ne	402b1c <_nl_load_domain+0x4ac>  // b.any
  4037d8:	39402800 	ldrb	w0, [x0, #10]
  4037dc:	35ff9a00 	cbnz	w0, 402b1c <_nl_load_domain+0x4ac>
  4037e0:	7101919f 	cmp	w12, #0x64
  4037e4:	540008c0 	b.eq	4038fc <_nl_load_domain+0x128c>  // b.none
  4037e8:	35000870 	cbnz	w16, 4038f4 <_nl_load_domain+0x1284>
  4037ec:	b940a3e0 	ldr	w0, [sp, #160]
  4037f0:	350007e0 	cbnz	w0, 4038ec <_nl_load_domain+0x127c>
  4037f4:	35000783 	cbnz	w3, 4038e4 <_nl_load_domain+0x1274>
  4037f8:	7101e19f 	cmp	w12, #0x78
  4037fc:	54000440 	b.eq	403884 <_nl_load_domain+0x1214>  // b.none
  403800:	7101619f 	cmp	w12, #0x58
  403804:	54000801 	b.ne	403904 <_nl_load_domain+0x1294>  // b.any
  403808:	aa1203e1 	mov	x1, x18
  40380c:	17fffcc4 	b	402b1c <_nl_load_domain+0x4ac>
  403810:	39402400 	ldrb	w0, [x0, #9]
  403814:	35ff9840 	cbnz	w0, 402b1c <_nl_load_domain+0x4ac>
  403818:	7101919f 	cmp	w12, #0x64
  40381c:	54000600 	b.eq	4038dc <_nl_load_domain+0x126c>  // b.none
  403820:	350005b0 	cbnz	w16, 4038d4 <_nl_load_domain+0x1264>
  403824:	b940a3e0 	ldr	w0, [sp, #160]
  403828:	35000520 	cbnz	w0, 4038cc <_nl_load_domain+0x125c>
  40382c:	350004c3 	cbnz	w3, 4038c4 <_nl_load_domain+0x1254>
  403830:	7101e19f 	cmp	w12, #0x78
  403834:	540002c0 	b.eq	40388c <_nl_load_domain+0x121c>  // b.none
  403838:	7101619f 	cmp	w12, #0x58
  40383c:	54000641 	b.ne	403904 <_nl_load_domain+0x1294>  // b.any
  403840:	f0000261 	adrp	x1, 452000 <sigall_set+0x68>
  403844:	91056021 	add	x1, x1, #0x158
  403848:	17fffcb5 	b	402b1c <_nl_load_domain+0x4ac>
  40384c:	39402800 	ldrb	w0, [x0, #10]
  403850:	35000360 	cbnz	w0, 4038bc <_nl_load_domain+0x124c>
  403854:	7101919f 	cmp	w12, #0x64
  403858:	540002e0 	b.eq	4038b4 <_nl_load_domain+0x1244>  // b.none
  40385c:	35000290 	cbnz	w16, 4038ac <_nl_load_domain+0x123c>
  403860:	b940a3e0 	ldr	w0, [sp, #160]
  403864:	35000200 	cbnz	w0, 4038a4 <_nl_load_domain+0x1234>
  403868:	350001a3 	cbnz	w3, 40389c <_nl_load_domain+0x122c>
  40386c:	7101e19f 	cmp	w12, #0x78
  403870:	54000120 	b.eq	403894 <_nl_load_domain+0x1224>  // b.none
  403874:	7101619f 	cmp	w12, #0x58
  403878:	54000461 	b.ne	403904 <_nl_load_domain+0x1294>  // b.any
  40387c:	aa1203e1 	mov	x1, x18
  403880:	17fffca7 	b	402b1c <_nl_load_domain+0x4ac>
  403884:	f9404be1 	ldr	x1, [sp, #144]
  403888:	17fffca5 	b	402b1c <_nl_load_domain+0x4ac>
  40388c:	f9404fe1 	ldr	x1, [sp, #152]
  403890:	17fffca3 	b	402b1c <_nl_load_domain+0x4ac>
  403894:	f9404be1 	ldr	x1, [sp, #144]
  403898:	17fffca1 	b	402b1c <_nl_load_domain+0x4ac>
  40389c:	f94043e1 	ldr	x1, [sp, #128]
  4038a0:	17fffc9f 	b	402b1c <_nl_load_domain+0x4ac>
  4038a4:	aa0d03e1 	mov	x1, x13
  4038a8:	17fffc9d 	b	402b1c <_nl_load_domain+0x4ac>
  4038ac:	aa0e03e1 	mov	x1, x14
  4038b0:	17fffc9b 	b	402b1c <_nl_load_domain+0x4ac>
  4038b4:	aa0f03e1 	mov	x1, x15
  4038b8:	17fffc99 	b	402b1c <_nl_load_domain+0x4ac>
  4038bc:	d2800001 	mov	x1, #0x0                   	// #0
  4038c0:	17fffc97 	b	402b1c <_nl_load_domain+0x4ac>
  4038c4:	aa1e03e1 	mov	x1, x30
  4038c8:	17fffc95 	b	402b1c <_nl_load_domain+0x4ac>
  4038cc:	aa0503e1 	mov	x1, x5
  4038d0:	17fffc93 	b	402b1c <_nl_load_domain+0x4ac>
  4038d4:	aa0603e1 	mov	x1, x6
  4038d8:	17fffc91 	b	402b1c <_nl_load_domain+0x4ac>
  4038dc:	aa0703e1 	mov	x1, x7
  4038e0:	17fffc8f 	b	402b1c <_nl_load_domain+0x4ac>
  4038e4:	f94043e1 	ldr	x1, [sp, #128]
  4038e8:	17fffc8d 	b	402b1c <_nl_load_domain+0x4ac>
  4038ec:	aa0d03e1 	mov	x1, x13
  4038f0:	17fffc8b 	b	402b1c <_nl_load_domain+0x4ac>
  4038f4:	aa0e03e1 	mov	x1, x14
  4038f8:	17fffc89 	b	402b1c <_nl_load_domain+0x4ac>
  4038fc:	aa0f03e1 	mov	x1, x15
  403900:	17fffc87 	b	402b1c <_nl_load_domain+0x4ac>
  403904:	97fff28f 	bl	400340 <abort>

0000000000403908 <alias_compare>:
  403908:	f9400000 	ldr	x0, [x0]
  40390c:	b0000302 	adrp	x2, 464000 <translit_from_idx+0x15f0>
  403910:	f9400021 	ldr	x1, [x1]
  403914:	91106042 	add	x2, x2, #0x418
  403918:	14005eb0 	b	41b3d8 <__strcasecmp_l>
  40391c:	d503201f 	nop

0000000000403920 <read_alias_file>:
  403920:	d10943ff 	sub	sp, sp, #0x250
  403924:	93407c22 	sxtw	x2, w1
  403928:	91007443 	add	x3, x2, #0x1d
  40392c:	9270bc64 	and	x4, x3, #0xffffffffffff0000
  403930:	927cec63 	and	x3, x3, #0xfffffffffffffff0
  403934:	a9017bfd 	stp	x29, x30, [sp, #16]
  403938:	910043fd 	add	x29, sp, #0x10
  40393c:	cb2463e4 	sub	x4, sp, x4
  403940:	eb2463ff 	cmp	sp, x4
  403944:	a90463f7 	stp	x23, x24, [sp, #64]
  403948:	b0000437 	adrp	x23, 488000 <__FRAME_END__+0xff7c>
  40394c:	9126c2f7 	add	x23, x23, #0x9b0
  403950:	f94002e1 	ldr	x1, [x23]
  403954:	f9011fa1 	str	x1, [x29, #568]
  403958:	d2800001 	mov	x1, #0x0                   	// #0
  40395c:	a90253f3 	stp	x19, x20, [sp, #32]
  403960:	a9035bf5 	stp	x21, x22, [sp, #48]
  403964:	a9056bf9 	stp	x25, x26, [sp, #80]
  403968:	a90673fb 	stp	x27, x28, [sp, #96]
  40396c:	540000a0 	b.eq	403980 <read_alias_file+0x60>  // b.none
  403970:	d14043ff 	sub	sp, sp, #0x10, lsl #12
  403974:	eb2463ff 	cmp	sp, x4
  403978:	f90203ff 	str	xzr, [sp, #1024]
  40397c:	54ffffa1 	b.ne	403970 <read_alias_file+0x50>  // b.any
  403980:	92403c63 	and	x3, x3, #0xffff
  403984:	cb2363ff 	sub	sp, sp, x3
  403988:	f110007f 	cmp	x3, #0x400
  40398c:	f90003ff 	str	xzr, [sp]
  403990:	54001b62 	b.cs	403cfc <read_alias_file+0x3dc>  // b.hs, b.nlast
  403994:	910043f3 	add	x19, sp, #0x10
  403998:	aa0003e1 	mov	x1, x0
  40399c:	aa1303e0 	mov	x0, x19
  4039a0:	94005e10 	bl	41b1e0 <__mempcpy>
  4039a4:	d0000263 	adrp	x3, 451000 <free_modules_db+0x18>
  4039a8:	91304063 	add	x3, x3, #0xc10
  4039ac:	aa0003e2 	mov	x2, x0
  4039b0:	d0000261 	adrp	x1, 451000 <free_modules_db+0x18>
  4039b4:	aa1303e0 	mov	x0, x19
  4039b8:	91302021 	add	x1, x1, #0xc08
  4039bc:	f9400064 	ldr	x4, [x3]
  4039c0:	f9000044 	str	x4, [x2]
  4039c4:	f8406063 	ldur	x3, [x3, #6]
  4039c8:	f8006043 	stur	x3, [x2, #6]
  4039cc:	94002455 	bl	40cb20 <_IO_new_fopen>
  4039d0:	aa0003f4 	mov	x20, x0
  4039d4:	b4001980 	cbz	x0, 403d04 <read_alias_file+0x3e4>
  4039d8:	b9400001 	ldr	w1, [x0]
  4039dc:	d2800018 	mov	x24, #0x0                   	// #0
  4039e0:	32110022 	orr	w2, w1, #0x8000
  4039e4:	b9000002 	str	w2, [x0]
  4039e8:	37201ae1 	tbnz	w1, #4, 403d44 <read_alias_file+0x424>
  4039ec:	b0000420 	adrp	x0, 488000 <__FRAME_END__+0xff7c>
  4039f0:	f947d400 	ldr	x0, [x0, #4008]
  4039f4:	d53bd055 	mrs	x21, tpidr_el0
  4039f8:	f0000436 	adrp	x22, 48a000 <_dl_main_map+0xc0>
  4039fc:	913b22d6 	add	x22, x22, #0xec8
  403a00:	8b0002b5 	add	x21, x21, x0
  403a04:	d503201f 	nop
  403a08:	aa1403e2 	mov	x2, x20
  403a0c:	9102a3a0 	add	x0, x29, #0xa8
  403a10:	52803201 	mov	w1, #0x190                 	// #400
  403a14:	94002d37 	bl	40eef0 <__fgets_unlocked>
  403a18:	b40002c0 	cbz	x0, 403a70 <read_alias_file+0x150>
  403a1c:	52800141 	mov	w1, #0xa                   	// #10
  403a20:	9102a3a0 	add	x0, x29, #0xa8
  403a24:	940058ab 	bl	419cd0 <strchr>
  403a28:	9102a3b3 	add	x19, x29, #0xa8
  403a2c:	3942a3a1 	ldrb	w1, [x29, #168]
  403a30:	aa0003fa 	mov	x26, x0
  403a34:	f94002a3 	ldr	x3, [x21]
  403a38:	d37f1c22 	ubfiz	x2, x1, #1, #8
  403a3c:	78626862 	ldrh	w2, [x3, x2]
  403a40:	366800c2 	tbz	w2, #13, 403a58 <read_alias_file+0x138>
  403a44:	d503201f 	nop
  403a48:	38401e61 	ldrb	w1, [x19, #1]!
  403a4c:	d37f1c22 	ubfiz	x2, x1, #1, #8
  403a50:	78626862 	ldrh	w2, [x3, x2]
  403a54:	376fffa2 	tbnz	w2, #13, 403a48 <read_alias_file+0x128>
  403a58:	71008c3f 	cmp	w1, #0x23
  403a5c:	7a401824 	ccmp	w1, #0x0, #0x4, ne  // ne = any
  403a60:	54000501 	b.ne	403b00 <read_alias_file+0x1e0>  // b.any
  403a64:	b400043a 	cbz	x26, 403ae8 <read_alias_file+0x1c8>
  403a68:	b9400280 	ldr	w0, [x20]
  403a6c:	3627fce0 	tbz	w0, #4, 403a08 <read_alias_file+0xe8>
  403a70:	aa1403e0 	mov	x0, x20
  403a74:	940022dd 	bl	40c5e8 <_IO_new_fclose>
  403a78:	b4000138 	cbz	x24, 403a9c <read_alias_file+0x17c>
  403a7c:	f0000421 	adrp	x1, 48a000 <_dl_main_map+0xc0>
  403a80:	90000440 	adrp	x0, 48b000 <initial+0xd0>
  403a84:	90000003 	adrp	x3, 403000 <_nl_load_domain+0x990>
  403a88:	d2800202 	mov	x2, #0x10                  	// #16
  403a8c:	f9476421 	ldr	x1, [x1, #3784]
  403a90:	91242063 	add	x3, x3, #0x908
  403a94:	f947ac00 	ldr	x0, [x0, #3928]
  403a98:	94000810 	bl	405ad8 <qsort>
  403a9c:	f9411fa0 	ldr	x0, [x29, #568]
  403aa0:	f94002e1 	ldr	x1, [x23]
  403aa4:	eb010000 	subs	x0, x0, x1
  403aa8:	d2800001 	mov	x1, #0x0                   	// #0
  403aac:	54001501 	b.ne	403d4c <read_alias_file+0x42c>  // b.any
  403ab0:	d10043bf 	sub	sp, x29, #0x10
  403ab4:	aa1803e0 	mov	x0, x24
  403ab8:	a9417bfd 	ldp	x29, x30, [sp, #16]
  403abc:	a94253f3 	ldp	x19, x20, [sp, #32]
  403ac0:	a9435bf5 	ldp	x21, x22, [sp, #48]
  403ac4:	a94463f7 	ldp	x23, x24, [sp, #64]
  403ac8:	a9456bf9 	ldp	x25, x26, [sp, #80]
  403acc:	a94673fb 	ldp	x27, x28, [sp, #96]
  403ad0:	910943ff 	add	sp, sp, #0x250
  403ad4:	d65f03c0 	ret
  403ad8:	9102a3a0 	add	x0, x29, #0xa8
  403adc:	52800141 	mov	w1, #0xa                   	// #10
  403ae0:	9400587c 	bl	419cd0 <strchr>
  403ae4:	b5fffc20 	cbnz	x0, 403a68 <read_alias_file+0x148>
  403ae8:	aa1403e2 	mov	x2, x20
  403aec:	9102a3a0 	add	x0, x29, #0xa8
  403af0:	52803201 	mov	w1, #0x190                 	// #400
  403af4:	94002cff 	bl	40eef0 <__fgets_unlocked>
  403af8:	b5ffff00 	cbnz	x0, 403ad8 <read_alias_file+0x1b8>
  403afc:	17ffffdb 	b	403a68 <read_alias_file+0x148>
  403b00:	39400661 	ldrb	w1, [x19, #1]
  403b04:	91000679 	add	x25, x19, #0x1
  403b08:	35000061 	cbnz	w1, 403b14 <read_alias_file+0x1f4>
  403b0c:	14000009 	b	403b30 <read_alias_file+0x210>
  403b10:	34000101 	cbz	w1, 403b30 <read_alias_file+0x210>
  403b14:	d37f1c22 	ubfiz	x2, x1, #1, #8
  403b18:	aa1903e4 	mov	x4, x25
  403b1c:	39400721 	ldrb	w1, [x25, #1]
  403b20:	91000739 	add	x25, x25, #0x1
  403b24:	78626862 	ldrh	w2, [x3, x2]
  403b28:	366fff42 	tbz	w2, #13, 403b10 <read_alias_file+0x1f0>
  403b2c:	3900009f 	strb	wzr, [x4]
  403b30:	d37f1c20 	ubfiz	x0, x1, #1, #8
  403b34:	78606860 	ldrh	w0, [x3, x0]
  403b38:	366800c0 	tbz	w0, #13, 403b50 <read_alias_file+0x230>
  403b3c:	d503201f 	nop
  403b40:	38401f21 	ldrb	w1, [x25, #1]!
  403b44:	d37f1c22 	ubfiz	x2, x1, #1, #8
  403b48:	78626862 	ldrh	w2, [x3, x2]
  403b4c:	376fffa2 	tbnz	w2, #13, 403b40 <read_alias_file+0x220>
  403b50:	34fff8a1 	cbz	w1, 403a64 <read_alias_file+0x144>
  403b54:	39400721 	ldrb	w1, [x25, #1]
  403b58:	91000720 	add	x0, x25, #0x1
  403b5c:	35000081 	cbnz	w1, 403b6c <read_alias_file+0x24c>
  403b60:	1400000a 	b	403b88 <read_alias_file+0x268>
  403b64:	38401c01 	ldrb	w1, [x0, #1]!
  403b68:	34000101 	cbz	w1, 403b88 <read_alias_file+0x268>
  403b6c:	d37f1c22 	ubfiz	x2, x1, #1, #8
  403b70:	78626862 	ldrh	w2, [x3, x2]
  403b74:	366fff82 	tbz	w2, #13, 403b64 <read_alias_file+0x244>
  403b78:	7100283f 	cmp	w1, #0xa
  403b7c:	54000941 	b.ne	403ca4 <read_alias_file+0x384>  // b.any
  403b80:	52814001 	mov	w1, #0xa00                 	// #2560
  403b84:	79000001 	strh	w1, [x0]
  403b88:	a94002db 	ldp	x27, x0, [x22]
  403b8c:	9000045c 	adrp	x28, 48b000 <initial+0xd0>
  403b90:	913d6384 	add	x4, x28, #0xf58
  403b94:	eb00037f 	cmp	x27, x0
  403b98:	54000922 	b.cs	403cbc <read_alias_file+0x39c>  // b.hs, b.nlast
  403b9c:	aa1303e0 	mov	x0, x19
  403ba0:	f9004ba4 	str	x4, [x29, #144]
  403ba4:	97fff1d7 	bl	400300 <.plt+0x60>
  403ba8:	aa0003e2 	mov	x2, x0
  403bac:	91000442 	add	x2, x2, #0x1
  403bb0:	aa1903e0 	mov	x0, x25
  403bb4:	f9004fa2 	str	x2, [x29, #152]
  403bb8:	97fff1d2 	bl	400300 <.plt+0x60>
  403bbc:	9100041c 	add	x28, x0, #0x1
  403bc0:	a94106ca 	ldp	x10, x1, [x22, #16]
  403bc4:	a9490ba4 	ldp	x4, x2, [x29, #144]
  403bc8:	8b020149 	add	x9, x10, x2
  403bcc:	8b1c0128 	add	x8, x9, x28
  403bd0:	eb01011f 	cmp	x8, x1
  403bd4:	f9400485 	ldr	x5, [x4, #8]
  403bd8:	54000368 	b.hi	403c44 <read_alias_file+0x324>  // b.pmore
  403bdc:	f9400087 	ldr	x7, [x4]
  403be0:	aa0503e3 	mov	x3, x5
  403be4:	d37cef66 	lsl	x6, x27, #4
  403be8:	8b0600e4 	add	x4, x7, x6
  403bec:	8b0a0060 	add	x0, x3, x10
  403bf0:	aa1303e1 	mov	x1, x19
  403bf4:	a90727a8 	stp	x8, x9, [x29, #112]
  403bf8:	9100077b 	add	x27, x27, #0x1
  403bfc:	a9081fa6 	stp	x6, x7, [x29, #128]
  403c00:	91000718 	add	x24, x24, #0x1
  403c04:	a9090fa4 	stp	x4, x3, [x29, #144]
  403c08:	97fff1aa 	bl	4002b0 <.plt+0x10>
  403c0c:	aa1c03e2 	mov	x2, x28
  403c10:	a9479ba9 	ldp	x9, x6, [x29, #120]
  403c14:	aa1903e1 	mov	x1, x25
  403c18:	f94047a7 	ldr	x7, [x29, #136]
  403c1c:	f9404fa3 	ldr	x3, [x29, #152]
  403c20:	f82668e0 	str	x0, [x7, x6]
  403c24:	8b090060 	add	x0, x3, x9
  403c28:	97fff1a2 	bl	4002b0 <.plt+0x10>
  403c2c:	f90002db 	str	x27, [x22]
  403c30:	f9404ba4 	ldr	x4, [x29, #144]
  403c34:	f9403ba8 	ldr	x8, [x29, #112]
  403c38:	f9000ac8 	str	x8, [x22, #16]
  403c3c:	f9000480 	str	x0, [x4, #8]
  403c40:	17ffff89 	b	403a64 <read_alias_file+0x144>
  403c44:	8b1c0043 	add	x3, x2, x28
  403c48:	d2808006 	mov	x6, #0x400                 	// #1024
  403c4c:	eb06007f 	cmp	x3, x6
  403c50:	aa0503e0 	mov	x0, x5
  403c54:	9a862063 	csel	x3, x3, x6, cs  // cs = hs, nlast
  403c58:	a906a3a4 	stp	x4, x8, [x29, #104]
  403c5c:	8b010061 	add	x1, x3, x1
  403c60:	a907aba9 	stp	x9, x10, [x29, #120]
  403c64:	a90897a2 	stp	x2, x5, [x29, #136]
  403c68:	f9004fa1 	str	x1, [x29, #152]
  403c6c:	9400536d 	bl	418a20 <__libc_realloc>
  403c70:	aa0003e3 	mov	x3, x0
  403c74:	b4ffefe0 	cbz	x0, 403a70 <read_alias_file+0x150>
  403c78:	a946a3a4 	ldp	x4, x8, [x29, #104]
  403c7c:	a94897a2 	ldp	x2, x5, [x29, #136]
  403c80:	a947aba9 	ldp	x9, x10, [x29, #120]
  403c84:	f9400087 	ldr	x7, [x4]
  403c88:	eb05001f 	cmp	x0, x5
  403c8c:	f9404fa1 	ldr	x1, [x29, #152]
  403c90:	540003e1 	b.ne	403d0c <read_alias_file+0x3ec>  // b.any
  403c94:	d37cef66 	lsl	x6, x27, #4
  403c98:	f9000483 	str	x3, [x4, #8]
  403c9c:	f9000ec1 	str	x1, [x22, #24]
  403ca0:	17ffffd2 	b	403be8 <read_alias_file+0x2c8>
  403ca4:	3900001f 	strb	wzr, [x0]
  403ca8:	9000045c 	adrp	x28, 48b000 <initial+0xd0>
  403cac:	a94002db 	ldp	x27, x0, [x22]
  403cb0:	913d6384 	add	x4, x28, #0xf58
  403cb4:	eb00037f 	cmp	x27, x0
  403cb8:	54fff723 	b.cc	403b9c <read_alias_file+0x27c>  // b.lo, b.ul, b.last
  403cbc:	b50001a0 	cbnz	x0, 403cf0 <read_alias_file+0x3d0>
  403cc0:	d280c801 	mov	x1, #0x640                 	// #1600
  403cc4:	d2800c82 	mov	x2, #0x64                  	// #100
  403cc8:	9000045c 	adrp	x28, 48b000 <initial+0xd0>
  403ccc:	913d6384 	add	x4, x28, #0xf58
  403cd0:	a90913a2 	stp	x2, x4, [x29, #144]
  403cd4:	f947af80 	ldr	x0, [x28, #3928]
  403cd8:	94005352 	bl	418a20 <__libc_realloc>
  403cdc:	b4ffeca0 	cbz	x0, 403a70 <read_alias_file+0x150>
  403ce0:	a94913a2 	ldp	x2, x4, [x29, #144]
  403ce4:	f907af80 	str	x0, [x28, #3928]
  403ce8:	f90006c2 	str	x2, [x22, #8]
  403cec:	17ffffac 	b	403b9c <read_alias_file+0x27c>
  403cf0:	d37ff802 	lsl	x2, x0, #1
  403cf4:	d37be801 	lsl	x1, x0, #5
  403cf8:	17fffff4 	b	403cc8 <read_alias_file+0x3a8>
  403cfc:	f90203ff 	str	xzr, [sp, #1024]
  403d00:	17ffff25 	b	403994 <read_alias_file+0x74>
  403d04:	d2800018 	mov	x24, #0x0                   	// #0
  403d08:	17ffff65 	b	403a9c <read_alias_file+0x17c>
  403d0c:	d2800006 	mov	x6, #0x0                   	// #0
  403d10:	b4fffc5b 	cbz	x27, 403c98 <read_alias_file+0x378>
  403d14:	d37cef66 	lsl	x6, x27, #4
  403d18:	cb050005 	sub	x5, x0, x5
  403d1c:	8b0600ed 	add	x13, x7, x6
  403d20:	aa0703e0 	mov	x0, x7
  403d24:	a9402c0c 	ldp	x12, x11, [x0]
  403d28:	8b05018c 	add	x12, x12, x5
  403d2c:	8b05016b 	add	x11, x11, x5
  403d30:	a9002c0c 	stp	x12, x11, [x0]
  403d34:	91004000 	add	x0, x0, #0x10
  403d38:	eb0001bf 	cmp	x13, x0
  403d3c:	54ffff41 	b.ne	403d24 <read_alias_file+0x404>  // b.any
  403d40:	17ffffd6 	b	403c98 <read_alias_file+0x378>
  403d44:	94002229 	bl	40c5e8 <_IO_new_fclose>
  403d48:	17ffff55 	b	403a9c <read_alias_file+0x17c>
  403d4c:	94007241 	bl	420650 <__stack_chk_fail>

0000000000403d50 <_nl_expand_alias>:
  403d50:	a9bb7bfd 	stp	x29, x30, [sp, #-80]!
  403d54:	52800021 	mov	w1, #0x1                   	// #1
  403d58:	910003fd 	mov	x29, sp
  403d5c:	a90153f3 	stp	x19, x20, [sp, #16]
  403d60:	f0000433 	adrp	x19, 48a000 <_dl_main_map+0xc0>
  403d64:	913b2273 	add	x19, x19, #0xec8
  403d68:	91008274 	add	x20, x19, #0x20
  403d6c:	a9025bf5 	stp	x21, x22, [sp, #32]
  403d70:	aa1403e2 	mov	x2, x20
  403d74:	aa0003f5 	mov	x21, x0
  403d78:	52800000 	mov	w0, #0x0                   	// #0
  403d7c:	a90363f7 	stp	x23, x24, [sp, #48]
  403d80:	a9046bf9 	stp	x25, x26, [sp, #64]
  403d84:	9401204b 	bl	44beb0 <__aarch64_cas4_acq>
  403d88:	35000ce0 	cbnz	w0, 403f24 <_nl_expand_alias+0x1d4>
  403d8c:	f9401660 	ldr	x0, [x19, #40]
  403d90:	b40009a0 	cbz	x0, 403ec4 <_nl_expand_alias+0x174>
  403d94:	f9400277 	ldr	x23, [x19]
  403d98:	b0000314 	adrp	x20, 464000 <translit_from_idx+0x15f0>
  403d9c:	91106294 	add	x20, x20, #0x418
  403da0:	b5000677 	cbnz	x23, 403e6c <_nl_expand_alias+0x11c>
  403da4:	f9401663 	ldr	x3, [x19, #40]
  403da8:	52800001 	mov	w1, #0x0                   	// #0
  403dac:	39400060 	ldrb	w0, [x3]
  403db0:	340002c0 	cbz	w0, 403e08 <_nl_expand_alias+0xb8>
  403db4:	d503201f 	nop
  403db8:	7100e81f 	cmp	w0, #0x3a
  403dbc:	91000461 	add	x1, x3, #0x1
  403dc0:	540007e1 	b.ne	403ebc <_nl_expand_alias+0x16c>  // b.any
  403dc4:	d503201f 	nop
  403dc8:	aa0103e0 	mov	x0, x1
  403dcc:	38401422 	ldrb	w2, [x1], #1
  403dd0:	7100e85f 	cmp	w2, #0x3a
  403dd4:	54ffffa0 	b.eq	403dc8 <_nl_expand_alias+0x78>  // b.none
  403dd8:	34000382 	cbz	w2, 403e48 <_nl_expand_alias+0xf8>
  403ddc:	91000401 	add	x1, x0, #0x1
  403de0:	aa0103e3 	mov	x3, x1
  403de4:	38401422 	ldrb	w2, [x1], #1
  403de8:	7100e85f 	cmp	w2, #0x3a
  403dec:	7a401844 	ccmp	w2, #0x0, #0x4, ne  // ne = any
  403df0:	54ffff81 	b.ne	403de0 <_nl_expand_alias+0x90>  // b.any
  403df4:	eb00007f 	cmp	x3, x0
  403df8:	540002e8 	b.hi	403e54 <_nl_expand_alias+0x104>  // b.pmore
  403dfc:	52800021 	mov	w1, #0x1                   	// #1
  403e00:	39400060 	ldrb	w0, [x3]
  403e04:	35fffda0 	cbnz	w0, 403db8 <_nl_expand_alias+0x68>
  403e08:	34000041 	cbz	w1, 403e10 <_nl_expand_alias+0xc0>
  403e0c:	f9001663 	str	x3, [x19, #40]
  403e10:	91008273 	add	x19, x19, #0x20
  403e14:	52800000 	mov	w0, #0x0                   	// #0
  403e18:	aa1303e1 	mov	x1, x19
  403e1c:	d2800014 	mov	x20, #0x0                   	// #0
  403e20:	94012084 	bl	44c030 <__aarch64_swp4_rel>
  403e24:	7100041f 	cmp	w0, #0x1
  403e28:	5400064c 	b.gt	403ef0 <_nl_expand_alias+0x1a0>
  403e2c:	aa1403e0 	mov	x0, x20
  403e30:	a94153f3 	ldp	x19, x20, [sp, #16]
  403e34:	a9425bf5 	ldp	x21, x22, [sp, #32]
  403e38:	a94363f7 	ldp	x23, x24, [sp, #48]
  403e3c:	a9446bf9 	ldp	x25, x26, [sp, #64]
  403e40:	a8c57bfd 	ldp	x29, x30, [sp], #80
  403e44:	d65f03c0 	ret
  403e48:	aa0003e3 	mov	x3, x0
  403e4c:	52800021 	mov	w1, #0x1                   	// #1
  403e50:	17ffffec 	b	403e00 <_nl_expand_alias+0xb0>
  403e54:	4b000061 	sub	w1, w3, w0
  403e58:	f9001663 	str	x3, [x19, #40]
  403e5c:	97fffeb1 	bl	403920 <read_alias_file>
  403e60:	b4fffa20 	cbz	x0, 403da4 <_nl_expand_alias+0x54>
  403e64:	f9400277 	ldr	x23, [x19]
  403e68:	b4fff9f7 	cbz	x23, 403da4 <_nl_expand_alias+0x54>
  403e6c:	90000440 	adrp	x0, 48b000 <initial+0xd0>
  403e70:	d2800018 	mov	x24, #0x0                   	// #0
  403e74:	f947ac19 	ldr	x25, [x0, #3928]
  403e78:	14000005 	b	403e8c <_nl_expand_alias+0x13c>
  403e7c:	540002c0 	b.eq	403ed4 <_nl_expand_alias+0x184>  // b.none
  403e80:	910006d8 	add	x24, x22, #0x1
  403e84:	eb1802ff 	cmp	x23, x24
  403e88:	54fff8e9 	b.ls	403da4 <_nl_expand_alias+0x54>  // b.plast
  403e8c:	8b170316 	add	x22, x24, x23
  403e90:	aa1403e2 	mov	x2, x20
  403e94:	aa1503e0 	mov	x0, x21
  403e98:	d341fed6 	lsr	x22, x22, #1
  403e9c:	d37ceec1 	lsl	x1, x22, #4
  403ea0:	8b01033a 	add	x26, x25, x1
  403ea4:	f8616b21 	ldr	x1, [x25, x1]
  403ea8:	94005d4c 	bl	41b3d8 <__strcasecmp_l>
  403eac:	7100001f 	cmp	w0, #0x0
  403eb0:	54fffe6a 	b.ge	403e7c <_nl_expand_alias+0x12c>  // b.tcont
  403eb4:	aa1603f7 	mov	x23, x22
  403eb8:	17fffff3 	b	403e84 <_nl_expand_alias+0x134>
  403ebc:	aa0303e0 	mov	x0, x3
  403ec0:	17ffffc7 	b	403ddc <_nl_expand_alias+0x8c>
  403ec4:	d0000260 	adrp	x0, 451000 <free_modules_db+0x18>
  403ec8:	912d2000 	add	x0, x0, #0xb48
  403ecc:	f9001660 	str	x0, [x19, #40]
  403ed0:	17ffffb1 	b	403d94 <_nl_expand_alias+0x44>
  403ed4:	91008273 	add	x19, x19, #0x20
  403ed8:	52800000 	mov	w0, #0x0                   	// #0
  403edc:	aa1303e1 	mov	x1, x19
  403ee0:	f9400754 	ldr	x20, [x26, #8]
  403ee4:	94012053 	bl	44c030 <__aarch64_swp4_rel>
  403ee8:	7100041f 	cmp	w0, #0x1
  403eec:	54fffa0d 	b.le	403e2c <_nl_expand_alias+0xdc>
  403ef0:	aa1303e0 	mov	x0, x19
  403ef4:	d2801021 	mov	x1, #0x81                  	// #129
  403ef8:	d2800022 	mov	x2, #0x1                   	// #1
  403efc:	d2800003 	mov	x3, #0x0                   	// #0
  403f00:	d2800c48 	mov	x8, #0x62                  	// #98
  403f04:	d4000001 	svc	#0x0
  403f08:	aa1403e0 	mov	x0, x20
  403f0c:	a94153f3 	ldp	x19, x20, [sp, #16]
  403f10:	a9425bf5 	ldp	x21, x22, [sp, #32]
  403f14:	a94363f7 	ldp	x23, x24, [sp, #48]
  403f18:	a9446bf9 	ldp	x25, x26, [sp, #64]
  403f1c:	a8c57bfd 	ldp	x29, x30, [sp], #80
  403f20:	d65f03c0 	ret
  403f24:	aa1403e0 	mov	x0, x20
  403f28:	94003f78 	bl	413d08 <__lll_lock_wait_private>
  403f2c:	17ffff98 	b	403d8c <_nl_expand_alias+0x3c>

0000000000403f30 <_nl_make_l10nflist>:
  403f30:	d102c3ff 	sub	sp, sp, #0xb0
  403f34:	a9027bfd 	stp	x29, x30, [sp, #32]
  403f38:	910083fd 	add	x29, sp, #0x20
  403f3c:	a90353f3 	stp	x19, x20, [sp, #48]
  403f40:	2a0303f4 	mov	w20, w3
  403f44:	a9045bf5 	stp	x21, x22, [sp, #64]
  403f48:	aa0403f6 	mov	x22, x4
  403f4c:	aa0203f5 	mov	x21, x2
  403f50:	a90563f7 	stp	x23, x24, [sp, #80]
  403f54:	aa0103f7 	mov	x23, x1
  403f58:	121e0078 	and	w24, w3, #0x4
  403f5c:	a9066bf9 	stp	x25, x26, [sp, #96]
  403f60:	aa0503f9 	mov	x25, x5
  403f64:	9100085a 	add	x26, x2, #0x2
  403f68:	a9081be0 	stp	x0, x6, [sp, #128]
  403f6c:	aa0403e0 	mov	x0, x4
  403f70:	a90917e7 	stp	x7, x5, [sp, #144]
  403f74:	97fff0e3 	bl	400300 <.plt+0x60>
  403f78:	aa0003f3 	mov	x19, x0
  403f7c:	d2800000 	mov	x0, #0x0                   	// #0
  403f80:	36100094 	tbz	w20, #2, 403f90 <_nl_make_l10nflist+0x60>
  403f84:	aa1903e0 	mov	x0, x25
  403f88:	97fff0de 	bl	400300 <.plt+0x60>
  403f8c:	91000400 	add	x0, x0, #0x1
  403f90:	8b000273 	add	x19, x19, x0
  403f94:	121f0280 	and	w0, w20, #0x2
  403f98:	b900a3e0 	str	w0, [sp, #160]
  403f9c:	8b1a0273 	add	x19, x19, x26
  403fa0:	d2800019 	mov	x25, #0x0                   	// #0
  403fa4:	36080094 	tbz	w20, #1, 403fb4 <_nl_make_l10nflist+0x84>
  403fa8:	f94047e0 	ldr	x0, [sp, #136]
  403fac:	97fff0d5 	bl	400300 <.plt+0x60>
  403fb0:	91000419 	add	x25, x0, #0x1
  403fb4:	12000281 	and	w1, w20, #0x1
  403fb8:	b900abe1 	str	w1, [sp, #168]
  403fbc:	d2800000 	mov	x0, #0x0                   	// #0
  403fc0:	36000094 	tbz	w20, #0, 403fd0 <_nl_make_l10nflist+0xa0>
  403fc4:	f9404be0 	ldr	x0, [sp, #144]
  403fc8:	97fff0ce 	bl	400300 <.plt+0x60>
  403fcc:	91000400 	add	x0, x0, #0x1
  403fd0:	8b000320 	add	x0, x25, x0
  403fd4:	d2800019 	mov	x25, #0x0                   	// #0
  403fd8:	8b130013 	add	x19, x0, x19
  403fdc:	121d0280 	and	w0, w20, #0x8
  403fe0:	b900afe0 	str	w0, [sp, #172]
  403fe4:	36180094 	tbz	w20, #3, 403ff4 <_nl_make_l10nflist+0xc4>
  403fe8:	f9405be0 	ldr	x0, [sp, #176]
  403fec:	97fff0c5 	bl	400300 <.plt+0x60>
  403ff0:	91000419 	add	x25, x0, #0x1
  403ff4:	f9405fe0 	ldr	x0, [sp, #184]
  403ff8:	97fff0c2 	bl	400300 <.plt+0x60>
  403ffc:	aa0003fa 	mov	x26, x0
  404000:	8b190000 	add	x0, x0, x25
  404004:	8b130000 	add	x0, x0, x19
  404008:	94005088 	bl	418228 <__libc_malloc>
  40400c:	aa0003f3 	mov	x19, x0
  404010:	b4002420 	cbz	x0, 404494 <_nl_make_l10nflist+0x564>
  404014:	aa1503e2 	mov	x2, x21
  404018:	aa1703e1 	mov	x1, x23
  40401c:	a90773fb 	stp	x27, x28, [sp, #112]
  404020:	97fff0a4 	bl	4002b0 <.plt+0x10>
  404024:	b4000255 	cbz	x21, 40406c <_nl_make_l10nflist+0x13c>
  404028:	aa1303fb 	mov	x27, x19
  40402c:	aa1503fc 	mov	x28, x21
  404030:	aa1b03e0 	mov	x0, x27
  404034:	97fff0b3 	bl	400300 <.plt+0x60>
  404038:	8b00037b 	add	x27, x27, x0
  40403c:	aa2003e0 	mvn	x0, x0
  404040:	ab00039c 	adds	x28, x28, x0
  404044:	52800759 	mov	w25, #0x3a                  	// #58
  404048:	54000120 	b.eq	40406c <_nl_make_l10nflist+0x13c>  // b.none
  40404c:	d503201f 	nop
  404050:	38001779 	strb	w25, [x27], #1
  404054:	aa1b03e0 	mov	x0, x27
  404058:	97fff0aa 	bl	400300 <.plt+0x60>
  40405c:	8b00037b 	add	x27, x27, x0
  404060:	aa2003e0 	mvn	x0, x0
  404064:	ab00039c 	adds	x28, x28, x0
  404068:	54ffff41 	b.ne	404050 <_nl_make_l10nflist+0x120>  // b.any
  40406c:	8b150260 	add	x0, x19, x21
  404070:	528005e2 	mov	w2, #0x2f                  	// #47
  404074:	aa1603e1 	mov	x1, x22
  404078:	381ff002 	sturb	w2, [x0, #-1]
  40407c:	94005c71 	bl	41b240 <__stpcpy>
  404080:	aa0003e1 	mov	x1, x0
  404084:	35001c78 	cbnz	w24, 404410 <_nl_make_l10nflist+0x4e0>
  404088:	b940a3e2 	ldr	w2, [sp, #160]
  40408c:	91000420 	add	x0, x1, #0x1
  404090:	35001b22 	cbnz	w2, 4043f4 <_nl_make_l10nflist+0x4c4>
  404094:	b940abe2 	ldr	w2, [sp, #168]
  404098:	35001a02 	cbnz	w2, 4043d8 <_nl_make_l10nflist+0x4a8>
  40409c:	b940afe2 	ldr	w2, [sp, #172]
  4040a0:	350018e2 	cbnz	w2, 4043bc <_nl_make_l10nflist+0x48c>
  4040a4:	528005e2 	mov	w2, #0x2f                  	// #47
  4040a8:	39000022 	strb	w2, [x1]
  4040ac:	f9405fe1 	ldr	x1, [sp, #184]
  4040b0:	91000742 	add	x2, x26, #0x1
  4040b4:	d2800018 	mov	x24, #0x0                   	// #0
  4040b8:	97fff07e 	bl	4002b0 <.plt+0x10>
  4040bc:	f94043e0 	ldr	x0, [sp, #128]
  4040c0:	f940001a 	ldr	x26, [x0]
  4040c4:	f90053fa 	str	x26, [sp, #160]
  4040c8:	b400019a 	cbz	x26, 4040f8 <_nl_make_l10nflist+0x1c8>
  4040cc:	d503201f 	nop
  4040d0:	f9400340 	ldr	x0, [x26]
  4040d4:	aa1303e1 	mov	x1, x19
  4040d8:	b40000c0 	cbz	x0, 4040f0 <_nl_make_l10nflist+0x1c0>
  4040dc:	94005739 	bl	419dc0 <strcmp>
  4040e0:	7100001f 	cmp	w0, #0x0
  4040e4:	34001a40 	cbz	w0, 40442c <_nl_make_l10nflist+0x4fc>
  4040e8:	5400008b 	b.lt	4040f8 <_nl_make_l10nflist+0x1c8>  // b.tstop
  4040ec:	aa1a03f8 	mov	x24, x26
  4040f0:	f9400f5a 	ldr	x26, [x26, #24]
  4040f4:	b5fffefa 	cbnz	x26, 4040d0 <_nl_make_l10nflist+0x1a0>
  4040f8:	b940c3e0 	ldr	w0, [sp, #192]
  4040fc:	34001960 	cbz	w0, 404428 <_nl_make_l10nflist+0x4f8>
  404100:	12855541 	mov	w1, #0xffffd555            	// #-10923
  404104:	528aaaa0 	mov	w0, #0x5555                	// #21845
  404108:	0a940421 	and	w1, w1, w20, asr #1
  40410c:	0a000280 	and	w0, w20, w0
  404110:	0b000021 	add	w1, w1, w0
  404114:	12819980 	mov	w0, #0xfffff333            	// #-3277
  404118:	52866662 	mov	w2, #0x3333                	// #13107
  40411c:	0a020022 	and	w2, w1, w2
  404120:	0a810800 	and	w0, w0, w1, asr #2
  404124:	5281e1e5 	mov	w5, #0xf0f                 	// #3855
  404128:	0b020000 	add	w0, w0, w2
  40412c:	52800024 	mov	w4, #0x1                   	// #1
  404130:	aa1503f9 	mov	x25, x21
  404134:	aa1703fc 	mov	x28, x23
  404138:	0b801000 	add	w0, w0, w0, asr #4
  40413c:	d280001b 	mov	x27, #0x0                   	// #0
  404140:	0a050000 	and	w0, w0, w5
  404144:	0b402000 	add	w0, w0, w0, lsr #8
  404148:	1ac02080 	lsl	w0, w4, w0
  40414c:	93407c1a 	sxtw	x26, w0
  404150:	b4001895 	cbz	x21, 404460 <_nl_make_l10nflist+0x530>
  404154:	d503201f 	nop
  404158:	aa1c03e0 	mov	x0, x28
  40415c:	97fff069 	bl	400300 <.plt+0x60>
  404160:	91000404 	add	x4, x0, #0x1
  404164:	aa2003e0 	mvn	x0, x0
  404168:	9100077b 	add	x27, x27, #0x1
  40416c:	8b04039c 	add	x28, x28, x4
  404170:	ab000339 	adds	x25, x25, x0
  404174:	54ffff21 	b.ne	404158 <_nl_make_l10nflist+0x228>  // b.any
  404178:	9b1a7f60 	mul	x0, x27, x26
  40417c:	d37cec00 	lsl	x0, x0, #4
  404180:	9100a000 	add	x0, x0, #0x28
  404184:	94005029 	bl	418228 <__libc_malloc>
  404188:	aa0003fa 	mov	x26, x0
  40418c:	b40017a0 	cbz	x0, 404480 <_nl_make_l10nflist+0x550>
  404190:	aa1503fc 	mov	x28, x21
  404194:	aa1703fb 	mov	x27, x23
  404198:	f9000013 	str	x19, [x0]
  40419c:	d503201f 	nop
  4041a0:	aa1b03e0 	mov	x0, x27
  4041a4:	97fff057 	bl	400300 <.plt+0x60>
  4041a8:	91000404 	add	x4, x0, #0x1
  4041ac:	aa2003e0 	mvn	x0, x0
  4041b0:	91000739 	add	x25, x25, #0x1
  4041b4:	8b04037b 	add	x27, x27, x4
  4041b8:	ab00039c 	adds	x28, x28, x0
  4041bc:	54ffff21 	b.ne	4041a0 <_nl_make_l10nflist+0x270>  // b.any
  4041c0:	f100073f 	cmp	x25, #0x1
  4041c4:	52800020 	mov	w0, #0x1                   	// #1
  4041c8:	540007c0 	b.eq	4042c0 <_nl_make_l10nflist+0x390>  // b.none
  4041cc:	b9000b40 	str	w0, [x26, #8]
  4041d0:	f9000b5f 	str	xzr, [x26, #16]
  4041d4:	b4000838 	cbz	x24, 4042d8 <_nl_make_l10nflist+0x3a8>
  4041d8:	f9400f00 	ldr	x0, [x24, #24]
  4041dc:	f9000f40 	str	x0, [x26, #24]
  4041e0:	f9000f1a 	str	x26, [x24, #24]
  4041e4:	b40013b5 	cbz	x21, 404458 <_nl_make_l10nflist+0x528>
  4041e8:	aa1503f8 	mov	x24, x21
  4041ec:	aa1703f3 	mov	x19, x23
  4041f0:	d2800019 	mov	x25, #0x0                   	// #0
  4041f4:	d503201f 	nop
  4041f8:	aa1303e0 	mov	x0, x19
  4041fc:	97fff041 	bl	400300 <.plt+0x60>
  404200:	91000401 	add	x1, x0, #0x1
  404204:	aa2003e0 	mvn	x0, x0
  404208:	91000739 	add	x25, x25, #0x1
  40420c:	8b010273 	add	x19, x19, x1
  404210:	ab000318 	adds	x24, x24, x0
  404214:	54ffff21 	b.ne	4041f8 <_nl_make_l10nflist+0x2c8>  // b.any
  404218:	f100073f 	cmp	x25, #0x1
  40421c:	1a9f17f9 	cset	w25, eq  // eq = none
  404220:	4b190299 	sub	w25, w20, w25
  404224:	2a3403ea 	mvn	w10, w20
  404228:	d2800018 	mov	x24, #0x0                   	// #0
  40422c:	37f80159 	tbnz	w25, #31, 404254 <_nl_make_l10nflist+0x324>
  404230:	8b1502f3 	add	x19, x23, x21
  404234:	91006340 	add	x0, x26, #0x18
  404238:	5280003c 	mov	w28, #0x1                   	// #1
  40423c:	f90053e0 	str	x0, [sp, #160]
  404240:	6a0a033f 	tst	w25, w10
  404244:	54000780 	b.eq	404334 <_nl_make_l10nflist+0x404>  // b.none
  404248:	51000739 	sub	w25, w25, #0x1
  40424c:	3100073f 	cmn	w25, #0x1
  404250:	54ffff81 	b.ne	404240 <_nl_make_l10nflist+0x310>  // b.any
  404254:	f9405fe0 	ldr	x0, [sp, #184]
  404258:	b0000261 	adrp	x1, 451000 <free_modules_db+0x18>
  40425c:	d2800162 	mov	x2, #0xb                   	// #11
  404260:	91308021 	add	x1, x1, #0xc20
  404264:	940058ce 	bl	41a59c <strncmp>
  404268:	35000160 	cbnz	w0, 404294 <_nl_make_l10nflist+0x364>
  40426c:	37f80154 	tbnz	w20, #31, 404294 <_nl_make_l10nflist+0x364>
  404270:	b0000277 	adrp	x23, 451000 <free_modules_db+0x18>
  404274:	2a3403f5 	mvn	w21, w20
  404278:	9130c2f7 	add	x23, x23, #0xc30
  40427c:	52800033 	mov	w19, #0x1                   	// #1
  404280:	6a15029f 	tst	w20, w21
  404284:	54000340 	b.eq	4042ec <_nl_make_l10nflist+0x3bc>  // b.none
  404288:	51000694 	sub	w20, w20, #0x1
  40428c:	3100069f 	cmn	w20, #0x1
  404290:	54ffff81 	b.ne	404280 <_nl_make_l10nflist+0x350>  // b.any
  404294:	a94773fb 	ldp	x27, x28, [sp, #112]
  404298:	91001309 	add	x9, x24, #0x4
  40429c:	f8297b5f 	str	xzr, [x26, x9, lsl #3]
  4042a0:	aa1a03e0 	mov	x0, x26
  4042a4:	a9427bfd 	ldp	x29, x30, [sp, #32]
  4042a8:	a94353f3 	ldp	x19, x20, [sp, #48]
  4042ac:	a9445bf5 	ldp	x21, x22, [sp, #64]
  4042b0:	a94563f7 	ldp	x23, x24, [sp, #80]
  4042b4:	a9466bf9 	ldp	x25, x26, [sp, #96]
  4042b8:	9102c3ff 	add	sp, sp, #0xb0
  4042bc:	d65f03c0 	ret
  4042c0:	12000680 	and	w0, w20, #0x3
  4042c4:	f9000b5f 	str	xzr, [x26, #16]
  4042c8:	71000c1f 	cmp	w0, #0x3
  4042cc:	1a9f17e0 	cset	w0, eq  // eq = none
  4042d0:	b9000b40 	str	w0, [x26, #8]
  4042d4:	b5fff838 	cbnz	x24, 4041d8 <_nl_make_l10nflist+0x2a8>
  4042d8:	f94043e0 	ldr	x0, [sp, #128]
  4042dc:	f900001a 	str	x26, [x0]
  4042e0:	f94053e0 	ldr	x0, [sp, #160]
  4042e4:	f9000f40 	str	x0, [x26, #24]
  4042e8:	17ffffbf 	b	4041e4 <_nl_make_l10nflist+0x2b4>
  4042ec:	a9489fe6 	ldp	x6, x7, [sp, #136]
  4042f0:	b90013f3 	str	w19, [sp, #16]
  4042f4:	f9405be0 	ldr	x0, [sp, #176]
  4042f8:	f90003e0 	str	x0, [sp]
  4042fc:	f9405fe0 	ldr	x0, [sp, #184]
  404300:	f90007e0 	str	x0, [sp, #8]
  404304:	f94043e0 	ldr	x0, [sp, #128]
  404308:	aa1703e1 	mov	x1, x23
  40430c:	f9404fe5 	ldr	x5, [sp, #152]
  404310:	aa1603e4 	mov	x4, x22
  404314:	2a1403e3 	mov	w3, w20
  404318:	d2800362 	mov	x2, #0x1b                  	// #27
  40431c:	97ffff05 	bl	403f30 <_nl_make_l10nflist>
  404320:	91001301 	add	x1, x24, #0x4
  404324:	91000709 	add	x9, x24, #0x1
  404328:	aa0903f8 	mov	x24, x9
  40432c:	f8217b40 	str	x0, [x26, x1, lsl #3]
  404330:	17ffffd6 	b	404288 <_nl_make_l10nflist+0x358>
  404334:	d280001b 	mov	x27, #0x0                   	// #0
  404338:	b40003db 	cbz	x27, 4043b0 <_nl_make_l10nflist+0x480>
  40433c:	aa1b03e0 	mov	x0, x27
  404340:	eb13037f 	cmp	x27, x19
  404344:	54fff822 	b.cs	404248 <_nl_make_l10nflist+0x318>  // b.hs, b.nlast
  404348:	b900abea 	str	w10, [sp, #168]
  40434c:	97ffefed 	bl	400300 <.plt+0x60>
  404350:	91000400 	add	x0, x0, #0x1
  404354:	b940abea 	ldr	w10, [sp, #168]
  404358:	8b00037b 	add	x27, x27, x0
  40435c:	eb13037f 	cmp	x27, x19
  404360:	54fff742 	b.cs	404248 <_nl_make_l10nflist+0x318>  // b.hs, b.nlast
  404364:	aa1b03e0 	mov	x0, x27
  404368:	b900abea 	str	w10, [sp, #168]
  40436c:	97ffefe5 	bl	400300 <.plt+0x60>
  404370:	91000402 	add	x2, x0, #0x1
  404374:	a9489fe6 	ldp	x6, x7, [sp, #136]
  404378:	b90013fc 	str	w28, [sp, #16]
  40437c:	a94b03e1 	ldp	x1, x0, [sp, #176]
  404380:	a90003e1 	stp	x1, x0, [sp]
  404384:	aa1603e4 	mov	x4, x22
  404388:	f94043e0 	ldr	x0, [sp, #128]
  40438c:	aa1b03e1 	mov	x1, x27
  404390:	f9404fe5 	ldr	x5, [sp, #152]
  404394:	2a1903e3 	mov	w3, w25
  404398:	91000718 	add	x24, x24, #0x1
  40439c:	97fffee5 	bl	403f30 <_nl_make_l10nflist>
  4043a0:	f94053e1 	ldr	x1, [sp, #160]
  4043a4:	b940abea 	ldr	w10, [sp, #168]
  4043a8:	f8387820 	str	x0, [x1, x24, lsl #3]
  4043ac:	b5fffc9b 	cbnz	x27, 40433c <_nl_make_l10nflist+0x40c>
  4043b0:	aa1703fb 	mov	x27, x23
  4043b4:	b4fff4b5 	cbz	x21, 404248 <_nl_make_l10nflist+0x318>
  4043b8:	17ffffeb 	b	404364 <_nl_make_l10nflist+0x434>
  4043bc:	52800802 	mov	w2, #0x40                  	// #64
  4043c0:	39000022 	strb	w2, [x1]
  4043c4:	f9405be1 	ldr	x1, [sp, #176]
  4043c8:	94005b9e 	bl	41b240 <__stpcpy>
  4043cc:	aa0003e1 	mov	x1, x0
  4043d0:	91000400 	add	x0, x0, #0x1
  4043d4:	17ffff34 	b	4040a4 <_nl_make_l10nflist+0x174>
  4043d8:	528005c2 	mov	w2, #0x2e                  	// #46
  4043dc:	39000022 	strb	w2, [x1]
  4043e0:	f9404be1 	ldr	x1, [sp, #144]
  4043e4:	94005b97 	bl	41b240 <__stpcpy>
  4043e8:	aa0003e1 	mov	x1, x0
  4043ec:	91000400 	add	x0, x0, #0x1
  4043f0:	17ffff2b 	b	40409c <_nl_make_l10nflist+0x16c>
  4043f4:	528005c2 	mov	w2, #0x2e                  	// #46
  4043f8:	39000022 	strb	w2, [x1]
  4043fc:	f94047e1 	ldr	x1, [sp, #136]
  404400:	94005b90 	bl	41b240 <__stpcpy>
  404404:	aa0003e1 	mov	x1, x0
  404408:	91000400 	add	x0, x0, #0x1
  40440c:	17ffff22 	b	404094 <_nl_make_l10nflist+0x164>
  404410:	f9404fe1 	ldr	x1, [sp, #152]
  404414:	52800be2 	mov	w2, #0x5f                  	// #95
  404418:	38001402 	strb	w2, [x0], #1
  40441c:	94005b89 	bl	41b240 <__stpcpy>
  404420:	aa0003e1 	mov	x1, x0
  404424:	17ffff19 	b	404088 <_nl_make_l10nflist+0x158>
  404428:	d280001a 	mov	x26, #0x0                   	// #0
  40442c:	aa1303e0 	mov	x0, x19
  404430:	940050f0 	bl	4187f0 <__free>
  404434:	aa1a03e0 	mov	x0, x26
  404438:	a9427bfd 	ldp	x29, x30, [sp, #32]
  40443c:	a94353f3 	ldp	x19, x20, [sp, #48]
  404440:	a9445bf5 	ldp	x21, x22, [sp, #64]
  404444:	a94563f7 	ldp	x23, x24, [sp, #80]
  404448:	a9466bf9 	ldp	x25, x26, [sp, #96]
  40444c:	a94773fb 	ldp	x27, x28, [sp, #112]
  404450:	9102c3ff 	add	sp, sp, #0xb0
  404454:	d65f03c0 	ret
  404458:	2a1403f9 	mov	w25, w20
  40445c:	17ffff72 	b	404224 <_nl_make_l10nflist+0x2f4>
  404460:	d2800500 	mov	x0, #0x28                  	// #40
  404464:	94004f71 	bl	418228 <__libc_malloc>
  404468:	52800024 	mov	w4, #0x1                   	// #1
  40446c:	aa0003fa 	mov	x26, x0
  404470:	b4000080 	cbz	x0, 404480 <_nl_make_l10nflist+0x550>
  404474:	2a0403e0 	mov	w0, w4
  404478:	f9000353 	str	x19, [x26]
  40447c:	17ffff54 	b	4041cc <_nl_make_l10nflist+0x29c>
  404480:	aa1303e0 	mov	x0, x19
  404484:	d280001a 	mov	x26, #0x0                   	// #0
  404488:	940050da 	bl	4187f0 <__free>
  40448c:	a94773fb 	ldp	x27, x28, [sp, #112]
  404490:	17ffff84 	b	4042a0 <_nl_make_l10nflist+0x370>
  404494:	d280001a 	mov	x26, #0x0                   	// #0
  404498:	17ffff82 	b	4042a0 <_nl_make_l10nflist+0x370>
  40449c:	d503201f 	nop

00000000004044a0 <_nl_normalize_codeset>:
  4044a0:	a9bd7bfd 	stp	x29, x30, [sp, #-48]!
  4044a4:	910003fd 	mov	x29, sp
  4044a8:	b40008a1 	cbz	x1, 4045bc <_nl_normalize_codeset+0x11c>
  4044ac:	a9025bf5 	stp	x21, x22, [sp, #32]
  4044b0:	90000316 	adrp	x22, 464000 <translit_from_idx+0x15f0>
  4044b4:	911062d6 	add	x22, x22, #0x418
  4044b8:	a90153f3 	stp	x19, x20, [sp, #16]
  4044bc:	aa0103f4 	mov	x20, x1
  4044c0:	aa0003f5 	mov	x21, x0
  4044c4:	f94036d3 	ldr	x19, [x22, #104]
  4044c8:	aa0003e3 	mov	x3, x0
  4044cc:	8b000025 	add	x5, x1, x0
  4044d0:	52800024 	mov	w4, #0x1                   	// #1
  4044d4:	d2800000 	mov	x0, #0x0                   	// #0
  4044d8:	39400062 	ldrb	w2, [x3]
  4044dc:	91000463 	add	x3, x3, #0x1
  4044e0:	5100c041 	sub	w1, w2, #0x30
  4044e4:	d37f1c42 	ubfiz	x2, x2, #1, #8
  4044e8:	78626a62 	ldrh	w2, [x19, x2]
  4044ec:	36180082 	tbz	w2, #3, 4044fc <_nl_normalize_codeset+0x5c>
  4044f0:	7100283f 	cmp	w1, #0xa
  4044f4:	91000400 	add	x0, x0, #0x1
  4044f8:	1a9f3084 	csel	w4, w4, wzr, cc  // cc = lo, ul, last
  4044fc:	eb0300bf 	cmp	x5, x3
  404500:	54fffec1 	b.ne	4044d8 <_nl_normalize_codeset+0x38>  // b.any
  404504:	35000404 	cbnz	w4, 404584 <_nl_normalize_codeset+0xe4>
  404508:	91000400 	add	x0, x0, #0x1
  40450c:	94004f47 	bl	418228 <__libc_malloc>
  404510:	aa0003e4 	mov	x4, x0
  404514:	b40004a0 	cbz	x0, 4045a8 <_nl_normalize_codeset+0x108>
  404518:	d2800003 	mov	x3, #0x0                   	// #0
  40451c:	f9403ac8 	ldr	x8, [x22, #112]
  404520:	14000007 	b	40453c <_nl_normalize_codeset+0x9c>
  404524:	b8677901 	ldr	w1, [x8, x7, lsl #2]
  404528:	380014a1 	strb	w1, [x5], #1
  40452c:	aa0503e4 	mov	x4, x5
  404530:	91000463 	add	x3, x3, #0x1
  404534:	eb03029f 	cmp	x20, x3
  404538:	540001c9 	b.ls	404570 <_nl_normalize_codeset+0xd0>  // b.plast
  40453c:	38636aa7 	ldrb	w7, [x21, x3]
  404540:	aa0403e5 	mov	x5, x4
  404544:	5100c0e1 	sub	w1, w7, #0x30
  404548:	d37f1ce6 	ubfiz	x6, x7, #1, #8
  40454c:	78666a66 	ldrh	w6, [x19, x6]
  404550:	3757fea6 	tbnz	w6, #10, 404524 <_nl_normalize_codeset+0x84>
  404554:	7100243f 	cmp	w1, #0x9
  404558:	54fffec8 	b.hi	404530 <_nl_normalize_codeset+0x90>  // b.pmore
  40455c:	380014a7 	strb	w7, [x5], #1
  404560:	91000463 	add	x3, x3, #0x1
  404564:	eb03029f 	cmp	x20, x3
  404568:	aa0503e4 	mov	x4, x5
  40456c:	54fffe88 	b.hi	40453c <_nl_normalize_codeset+0x9c>  // b.pmore
  404570:	a94153f3 	ldp	x19, x20, [sp, #16]
  404574:	a9425bf5 	ldp	x21, x22, [sp, #32]
  404578:	3900009f 	strb	wzr, [x4]
  40457c:	a8c37bfd 	ldp	x29, x30, [sp], #48
  404580:	d65f03c0 	ret
  404584:	91001000 	add	x0, x0, #0x4
  404588:	94004f28 	bl	418228 <__libc_malloc>
  40458c:	b40000e0 	cbz	x0, 4045a8 <_nl_normalize_codeset+0x108>
  404590:	aa0003e4 	mov	x4, x0
  404594:	528e6d21 	mov	w1, #0x7369                	// #29545
  404598:	72a00de1 	movk	w1, #0x6f, lsl #16
  40459c:	f94036d3 	ldr	x19, [x22, #104]
  4045a0:	b8003481 	str	w1, [x4], #3
  4045a4:	17ffffdd 	b	404518 <_nl_normalize_codeset+0x78>
  4045a8:	a94153f3 	ldp	x19, x20, [sp, #16]
  4045ac:	a9425bf5 	ldp	x21, x22, [sp, #32]
  4045b0:	d2800000 	mov	x0, #0x0                   	// #0
  4045b4:	a8c37bfd 	ldp	x29, x30, [sp], #48
  4045b8:	d65f03c0 	ret
  4045bc:	d2800080 	mov	x0, #0x4                   	// #4
  4045c0:	94004f1a 	bl	418228 <__libc_malloc>
  4045c4:	b4ffff60 	cbz	x0, 4045b0 <_nl_normalize_codeset+0x110>
  4045c8:	aa0003e4 	mov	x4, x0
  4045cc:	528e6d21 	mov	w1, #0x7369                	// #29545
  4045d0:	72a00de1 	movk	w1, #0x6f, lsl #16
  4045d4:	b8003481 	str	w1, [x4], #3
  4045d8:	17ffffe8 	b	404578 <_nl_normalize_codeset+0xd8>
  4045dc:	d503201f 	nop

00000000004045e0 <_nl_explode_name>:
  4045e0:	a9ba7bfd 	stp	x29, x30, [sp, #-96]!
  4045e4:	910003fd 	mov	x29, sp
  4045e8:	a90153f3 	stp	x19, x20, [sp, #16]
  4045ec:	52800014 	mov	w20, #0x0                   	// #0
  4045f0:	f90013f5 	str	x21, [sp, #32]
  4045f4:	aa0403f5 	mov	x21, x4
  4045f8:	f900005f 	str	xzr, [x2]
  4045fc:	f900007f 	str	xzr, [x3]
  404600:	f900009f 	str	xzr, [x4]
  404604:	f90000bf 	str	xzr, [x5]
  404608:	f9000020 	str	x0, [x1]
  40460c:	39400001 	ldrb	w1, [x0]
  404610:	71017c3f 	cmp	w1, #0x5f
  404614:	7a401824 	ccmp	w1, #0x0, #0x4, ne  // ne = any
  404618:	540003e0 	b.eq	404694 <_nl_explode_name+0xb4>  // b.none
  40461c:	aa0003f3 	mov	x19, x0
  404620:	52800807 	mov	w7, #0x40                  	// #64
  404624:	f90017f7 	str	x23, [sp, #40]
  404628:	aa0203f7 	mov	x23, x2
  40462c:	14000006 	b	404644 <_nl_explode_name+0x64>
  404630:	39400661 	ldrb	w1, [x19, #1]
  404634:	71017c3f 	cmp	w1, #0x5f
  404638:	7a401824 	ccmp	w1, #0x0, #0x4, ne  // ne = any
  40463c:	54000540 	b.eq	4046e4 <_nl_explode_name+0x104>  // b.none
  404640:	aa0603f3 	mov	x19, x6
  404644:	7100b83f 	cmp	w1, #0x2e
  404648:	91000666 	add	x6, x19, #0x1
  40464c:	7a471024 	ccmp	w1, w7, #0x4, ne  // ne = any
  404650:	54ffff01 	b.ne	404630 <_nl_explode_name+0x50>  // b.any
  404654:	eb13001f 	cmp	x0, x19
  404658:	54000400 	b.eq	4046d8 <_nl_explode_name+0xf8>  // b.none
  40465c:	39400261 	ldrb	w1, [x19]
  404660:	52800014 	mov	w20, #0x0                   	// #0
  404664:	7100b83f 	cmp	w1, #0x2e
  404668:	54000680 	b.eq	404738 <_nl_explode_name+0x158>  // b.none
  40466c:	7101003f 	cmp	w1, #0x40
  404670:	54000ac1 	b.ne	4047c8 <_nl_explode_name+0x1e8>  // b.any
  404674:	aa1303e0 	mov	x0, x19
  404678:	321d0281 	orr	w1, w20, #0x8
  40467c:	3800141f 	strb	wzr, [x0], #1
  404680:	f90002e0 	str	x0, [x23]
  404684:	f94017f7 	ldr	x23, [sp, #40]
  404688:	39400660 	ldrb	w0, [x19, #1]
  40468c:	7100001f 	cmp	w0, #0x0
  404690:	1a941034 	csel	w20, w1, w20, ne  // ne = any
  404694:	f9400060 	ldr	x0, [x3]
  404698:	b40000a0 	cbz	x0, 4046ac <_nl_explode_name+0xcc>
  40469c:	39400001 	ldrb	w1, [x0]
  4046a0:	121d7a80 	and	w0, w20, #0xfffffffb
  4046a4:	7100003f 	cmp	w1, #0x0
  4046a8:	1a940014 	csel	w20, w0, w20, eq  // eq = none
  4046ac:	f94002a0 	ldr	x0, [x21]
  4046b0:	b40000a0 	cbz	x0, 4046c4 <_nl_explode_name+0xe4>
  4046b4:	39400001 	ldrb	w1, [x0]
  4046b8:	121e7a80 	and	w0, w20, #0xfffffffd
  4046bc:	7100003f 	cmp	w1, #0x0
  4046c0:	1a940014 	csel	w20, w0, w20, eq  // eq = none
  4046c4:	2a1403e0 	mov	w0, w20
  4046c8:	a94153f3 	ldp	x19, x20, [sp, #16]
  4046cc:	f94013f5 	ldr	x21, [sp, #32]
  4046d0:	a8c67bfd 	ldp	x29, x30, [sp], #96
  4046d4:	d65f03c0 	ret
  4046d8:	52800014 	mov	w20, #0x0                   	// #0
  4046dc:	f94017f7 	ldr	x23, [sp, #40]
  4046e0:	17ffffed 	b	404694 <_nl_explode_name+0xb4>
  4046e4:	eb06001f 	cmp	x0, x6
  4046e8:	54ffff80 	b.eq	4046d8 <_nl_explode_name+0xf8>  // b.none
  4046ec:	71017c3f 	cmp	w1, #0x5f
  4046f0:	54000901 	b.ne	404810 <_nl_explode_name+0x230>  // b.any
  4046f4:	390000df 	strb	wzr, [x6]
  4046f8:	91000a73 	add	x19, x19, #0x2
  4046fc:	f9000073 	str	x19, [x3]
  404700:	394004c1 	ldrb	w1, [x6, #1]
  404704:	12197820 	and	w0, w1, #0xffffffbf
  404708:	7100b83f 	cmp	w1, #0x2e
  40470c:	12001c00 	and	w0, w0, #0xff
  404710:	7a401804 	ccmp	w0, #0x0, #0x4, ne  // ne = any
  404714:	540000c0 	b.eq	40472c <_nl_explode_name+0x14c>  // b.none
  404718:	38401e61 	ldrb	w1, [x19, #1]!
  40471c:	7100b83f 	cmp	w1, #0x2e
  404720:	12197820 	and	w0, w1, #0xffffffbf
  404724:	7a401804 	ccmp	w0, #0x0, #0x4, ne  // ne = any
  404728:	54ffff81 	b.ne	404718 <_nl_explode_name+0x138>  // b.any
  40472c:	7100b83f 	cmp	w1, #0x2e
  404730:	52800094 	mov	w20, #0x4                   	// #4
  404734:	54fff9c1 	b.ne	40466c <_nl_explode_name+0x8c>  // b.any
  404738:	aa1303e0 	mov	x0, x19
  40473c:	a90367f8 	stp	x24, x25, [sp, #48]
  404740:	528017e2 	mov	w2, #0xbf                  	// #191
  404744:	321f0299 	orr	w25, w20, #0x2
  404748:	3800141f 	strb	wzr, [x0], #1
  40474c:	f90002a0 	str	x0, [x21]
  404750:	39400661 	ldrb	w1, [x19, #1]
  404754:	6a02003f 	tst	w1, w2
  404758:	54000540 	b.eq	404800 <_nl_explode_name+0x220>  // b.none
  40475c:	aa0003f3 	mov	x19, x0
  404760:	aa1303f8 	mov	x24, x19
  404764:	38401e66 	ldrb	w6, [x19, #1]!
  404768:	528017e4 	mov	w4, #0xbf                  	// #191
  40476c:	6a0400df 	tst	w6, w4
  404770:	54ffff81 	b.ne	404760 <_nl_explode_name+0x180>  // b.any
  404774:	f9002be5 	str	x5, [sp, #80]
  404778:	eb13001f 	cmp	x0, x19
  40477c:	540002a0 	b.eq	4047d0 <_nl_explode_name+0x1f0>  // b.none
  404780:	cb000261 	sub	x1, x19, x0
  404784:	f90023fa 	str	x26, [sp, #64]
  404788:	f9002fe3 	str	x3, [sp, #88]
  40478c:	97ffff45 	bl	4044a0 <_nl_normalize_codeset>
  404790:	f9402be5 	ldr	x5, [sp, #80]
  404794:	aa0003fa 	mov	x26, x0
  404798:	f90000a0 	str	x0, [x5]
  40479c:	b4000400 	cbz	x0, 40481c <_nl_explode_name+0x23c>
  4047a0:	aa0003e1 	mov	x1, x0
  4047a4:	f94002a0 	ldr	x0, [x21]
  4047a8:	94005586 	bl	419dc0 <strcmp>
  4047ac:	f9402fe3 	ldr	x3, [sp, #88]
  4047b0:	34000160 	cbz	w0, 4047dc <_nl_explode_name+0x1fc>
  4047b4:	39400701 	ldrb	w1, [x24, #1]
  4047b8:	32000694 	orr	w20, w20, #0x3
  4047bc:	a94367f8 	ldp	x24, x25, [sp, #48]
  4047c0:	f94023fa 	ldr	x26, [sp, #64]
  4047c4:	17ffffaa 	b	40466c <_nl_explode_name+0x8c>
  4047c8:	f94017f7 	ldr	x23, [sp, #40]
  4047cc:	17ffffb2 	b	404694 <_nl_explode_name+0xb4>
  4047d0:	2a1903f4 	mov	w20, w25
  4047d4:	a94367f8 	ldp	x24, x25, [sp, #48]
  4047d8:	17ffffa5 	b	40466c <_nl_explode_name+0x8c>
  4047dc:	aa1a03e0 	mov	x0, x26
  4047e0:	f9002be3 	str	x3, [sp, #80]
  4047e4:	94005003 	bl	4187f0 <__free>
  4047e8:	2a1903f4 	mov	w20, w25
  4047ec:	39400701 	ldrb	w1, [x24, #1]
  4047f0:	a94367f8 	ldp	x24, x25, [sp, #48]
  4047f4:	f94023fa 	ldr	x26, [sp, #64]
  4047f8:	f9402be3 	ldr	x3, [sp, #80]
  4047fc:	17ffff9c 	b	40466c <_nl_explode_name+0x8c>
  404800:	2a1903f4 	mov	w20, w25
  404804:	aa0003f3 	mov	x19, x0
  404808:	a94367f8 	ldp	x24, x25, [sp, #48]
  40480c:	17ffff98 	b	40466c <_nl_explode_name+0x8c>
  404810:	aa0603f3 	mov	x19, x6
  404814:	52800014 	mov	w20, #0x0                   	// #0
  404818:	17ffff93 	b	404664 <_nl_explode_name+0x84>
  40481c:	12800014 	mov	w20, #0xffffffff            	// #-1
  404820:	a942e3f7 	ldp	x23, x24, [sp, #40]
  404824:	a943ebf9 	ldp	x25, x26, [sp, #56]
  404828:	17ffffa7 	b	4046c4 <_nl_explode_name+0xe4>
  40482c:	d503201f 	nop

0000000000404830 <__gettext_free_exp>:
  404830:	b4000340 	cbz	x0, 404898 <__gettext_free_exp+0x68>
  404834:	a9be7bfd 	stp	x29, x30, [sp, #-32]!
  404838:	910003fd 	mov	x29, sp
  40483c:	f9000bf3 	str	x19, [sp, #16]
  404840:	aa0003f3 	mov	x19, x0
  404844:	b9400000 	ldr	w0, [x0]
  404848:	7100081f 	cmp	w0, #0x2
  40484c:	54000160 	b.eq	404878 <__gettext_free_exp+0x48>  // b.none
  404850:	71000c1f 	cmp	w0, #0x3
  404854:	540000e0 	b.eq	404870 <__gettext_free_exp+0x40>  // b.none
  404858:	7100041f 	cmp	w0, #0x1
  40485c:	54000120 	b.eq	404880 <__gettext_free_exp+0x50>  // b.none
  404860:	aa1303e0 	mov	x0, x19
  404864:	f9400bf3 	ldr	x19, [sp, #16]
  404868:	a8c27bfd 	ldp	x29, x30, [sp], #32
  40486c:	14004fe1 	b	4187f0 <__free>
  404870:	f9400e60 	ldr	x0, [x19, #24]
  404874:	97ffffef 	bl	404830 <__gettext_free_exp>
  404878:	f9400a60 	ldr	x0, [x19, #16]
  40487c:	97ffffed 	bl	404830 <__gettext_free_exp>
  404880:	f9400660 	ldr	x0, [x19, #8]
  404884:	97ffffeb 	bl	404830 <__gettext_free_exp>
  404888:	aa1303e0 	mov	x0, x19
  40488c:	f9400bf3 	ldr	x19, [sp, #16]
  404890:	a8c27bfd 	ldp	x29, x30, [sp], #32
  404894:	14004fd7 	b	4187f0 <__free>
  404898:	d65f03c0 	ret
  40489c:	d503201f 	nop

00000000004048a0 <new_exp>:
  4048a0:	a9bd7bfd 	stp	x29, x30, [sp, #-48]!
  4048a4:	910003fd 	mov	x29, sp
  4048a8:	a9025bf5 	stp	x21, x22, [sp, #32]
  4048ac:	2a0103f6 	mov	w22, w1
  4048b0:	340004c0 	cbz	w0, 404948 <new_exp+0xa8>
  4048b4:	a90153f3 	stp	x19, x20, [sp, #16]
  4048b8:	51000413 	sub	w19, w0, #0x1
  4048bc:	2a0003f5 	mov	w21, w0
  4048c0:	93407e73 	sxtw	x19, w19
  4048c4:	aa0203f4 	mov	x20, x2
  4048c8:	aa1303e3 	mov	x3, x19
  4048cc:	14000002 	b	4048d4 <new_exp+0x34>
  4048d0:	54000200 	b.eq	404910 <new_exp+0x70>  // b.none
  4048d4:	f8637a84 	ldr	x4, [x20, x3, lsl #3]
  4048d8:	d1000463 	sub	x3, x3, #0x1
  4048dc:	3100047f 	cmn	w3, #0x1
  4048e0:	b5ffff84 	cbnz	x4, 4048d0 <new_exp+0x30>
  4048e4:	d503201f 	nop
  4048e8:	f8737a80 	ldr	x0, [x20, x19, lsl #3]
  4048ec:	d1000673 	sub	x19, x19, #0x1
  4048f0:	97ffffd0 	bl	404830 <__gettext_free_exp>
  4048f4:	3100067f 	cmn	w19, #0x1
  4048f8:	54ffff81 	b.ne	4048e8 <new_exp+0x48>  // b.any
  4048fc:	a94153f3 	ldp	x19, x20, [sp, #16]
  404900:	d2800000 	mov	x0, #0x0                   	// #0
  404904:	a9425bf5 	ldp	x21, x22, [sp, #32]
  404908:	a8c37bfd 	ldp	x29, x30, [sp], #48
  40490c:	d65f03c0 	ret
  404910:	d2800400 	mov	x0, #0x20                  	// #32
  404914:	94004e45 	bl	418228 <__libc_malloc>
  404918:	b4fffe80 	cbz	x0, 4048e8 <new_exp+0x48>
  40491c:	91002002 	add	x2, x0, #0x8
  404920:	29005815 	stp	w21, w22, [x0]
  404924:	f8737a81 	ldr	x1, [x20, x19, lsl #3]
  404928:	f8337841 	str	x1, [x2, x19, lsl #3]
  40492c:	d1000673 	sub	x19, x19, #0x1
  404930:	3100067f 	cmn	w19, #0x1
  404934:	54ffff81 	b.ne	404924 <new_exp+0x84>  // b.any
  404938:	a94153f3 	ldp	x19, x20, [sp, #16]
  40493c:	a9425bf5 	ldp	x21, x22, [sp, #32]
  404940:	a8c37bfd 	ldp	x29, x30, [sp], #48
  404944:	d65f03c0 	ret
  404948:	d2800400 	mov	x0, #0x20                  	// #32
  40494c:	94004e37 	bl	418228 <__libc_malloc>
  404950:	b4fffd80 	cbz	x0, 404900 <new_exp+0x60>
  404954:	2900581f 	stp	wzr, w22, [x0]
  404958:	a9425bf5 	ldp	x21, x22, [sp, #32]
  40495c:	a8c37bfd 	ldp	x29, x30, [sp], #48
  404960:	d65f03c0 	ret
  404964:	d503201f 	nop

0000000000404968 <__gettextparse>:
  404968:	d11f83ff 	sub	sp, sp, #0x7e0
  40496c:	b0000266 	adrp	x6, 451000 <free_modules_db+0x18>
  404970:	910343e3 	add	x3, sp, #0xd0
  404974:	b0000268 	adrp	x8, 451000 <free_modules_db+0x18>
  404978:	a9007bfd 	stp	x29, x30, [sp]
  40497c:	910003fd 	mov	x29, sp
  404980:	a9025bf5 	stp	x21, x22, [sp, #32]
  404984:	90000435 	adrp	x21, 488000 <__FRAME_END__+0xff7c>
  404988:	9126c2a1 	add	x1, x21, #0x9b0
  40498c:	a90153f3 	stp	x19, x20, [sp, #16]
  404990:	911c43f4 	add	x20, sp, #0x710
  404994:	b0000276 	adrp	x22, 451000 <free_modules_db+0x18>
  404998:	a90907e0 	stp	x0, x1, [sp, #144]
  40499c:	f9400020 	ldr	x0, [x1]
  4049a0:	f903efe0 	str	x0, [sp, #2008]
  4049a4:	d2800000 	mov	x0, #0x0                   	// #0
  4049a8:	913be2c0 	add	x0, x22, #0xef8
  4049ac:	9134e115 	add	x21, x8, #0xd38
  4049b0:	a90363f7 	stp	x23, x24, [sp, #48]
  4049b4:	b0000277 	adrp	x23, 451000 <free_modules_db+0x18>
  4049b8:	a9046bf9 	stp	x25, x26, [sp, #64]
  4049bc:	aa0303f9 	mov	x25, x3
  4049c0:	aa1403fa 	mov	x26, x20
  4049c4:	a90573fb 	stp	x27, x28, [sp, #80]
  4049c8:	aa1403fc 	mov	x28, x20
  4049cc:	913c00db 	add	x27, x6, #0xf00
  4049d0:	12800033 	mov	w19, #0xfffffffe            	// #-2
  4049d4:	d2801916 	mov	x22, #0xc8                  	// #200
  4049d8:	b9006fff 	str	wzr, [sp, #108]
  4049dc:	f90043e0 	str	x0, [sp, #128]
  4049e0:	913bc2e0 	add	x0, x23, #0xef0
  4049e4:	52800017 	mov	w23, #0x0                   	// #0
  4049e8:	f90047e0 	str	x0, [sp, #136]
  4049ec:	391c43ff 	strb	wzr, [sp, #1808]
  4049f0:	38f7cb61 	ldrsb	w1, [x27, w23, sxtw]
  4049f4:	93407ee2 	sxtw	x2, w23
  4049f8:	3100283f 	cmn	w1, #0xa
  4049fc:	2a0103ea 	mov	w10, w1
  404a00:	54001060 	b.eq	404c0c <__gettextparse+0x2a4>  // b.none
  404a04:	31000a7f 	cmn	w19, #0x2
  404a08:	54001da0 	b.eq	404dbc <__gettextparse+0x454>  // b.none
  404a0c:	7100027f 	cmp	w19, #0x0
  404a10:	54001c4d 	b.le	404d98 <__gettextparse+0x430>
  404a14:	38f3caa0 	ldrsb	w0, [x21, w19, sxtw]
  404a18:	0b00002a 	add	w10, w1, w0
  404a1c:	7100d95f 	cmp	w10, #0x36
  404a20:	54000f68 	b.hi	404c0c <__gettextparse+0x2a4>  // b.pmore
  404a24:	910422a4 	add	x4, x21, #0x108
  404a28:	38eac884 	ldrsb	w4, [x4, w10, sxtw]
  404a2c:	6b00009f 	cmp	w4, w0
  404a30:	54000ee1 	b.ne	404c0c <__gettextparse+0x2a4>  // b.any
  404a34:	910502a0 	add	x0, x21, #0x140
  404a38:	38eac817 	ldrsb	w23, [x0, w10, sxtw]
  404a3c:	4b1703e2 	neg	w2, w23
  404a40:	710002ff 	cmp	w23, #0x0
  404a44:	2a1703e1 	mov	w1, w23
  404a48:	5400016d 	b.le	404a74 <__gettextparse+0x10c>
  404a4c:	b9406fe2 	ldr	w2, [sp, #108]
  404a50:	91002063 	add	x3, x3, #0x8
  404a54:	12800033 	mov	w19, #0xfffffffe            	// #-2
  404a58:	7100005f 	cmp	w2, #0x0
  404a5c:	1a9f07e0 	cset	w0, ne  // ne = any
  404a60:	4b000040 	sub	w0, w2, w0
  404a64:	b9006fe0 	str	w0, [sp, #108]
  404a68:	f94057e0 	ldr	x0, [sp, #168]
  404a6c:	f9000060 	str	x0, [x3]
  404a70:	1400002e 	b	404b28 <__gettextparse+0x1c0>
  404a74:	910662a4 	add	x4, x21, #0x198
  404a78:	52800021 	mov	w1, #0x1                   	// #1
  404a7c:	7100205f 	cmp	w2, #0x8
  404a80:	93407c57 	sxtw	x23, w2
  404a84:	38e2c898 	ldrsb	w24, [x4, w2, sxtw]
  404a88:	4b180020 	sub	w0, w1, w24
  404a8c:	f860d860 	ldr	x0, [x3, w0, sxtw #3]
  404a90:	54001420 	b.eq	404d14 <__gettextparse+0x3ac>  // b.none
  404a94:	5400156c 	b.gt	404d40 <__gettextparse+0x3d8>
  404a98:	7100145f 	cmp	w2, #0x5
  404a9c:	54001cc0 	b.eq	404e34 <__gettextparse+0x4cc>  // b.none
  404aa0:	5400132c 	b.gt	404d04 <__gettextparse+0x39c>
  404aa4:	71000c5f 	cmp	w2, #0x3
  404aa8:	54001da0 	b.eq	404e5c <__gettextparse+0x4f4>  // b.none
  404aac:	7100105f 	cmp	w2, #0x4
  404ab0:	54000f41 	b.ne	404c98 <__gettextparse+0x330>  // b.any
  404ab4:	f85f0061 	ldur	x1, [x3, #-16]
  404ab8:	9102e3e2 	add	x2, sp, #0xb8
  404abc:	f9400060 	ldr	x0, [x3]
  404ac0:	f9003be3 	str	x3, [sp, #112]
  404ac4:	a90b83e1 	stp	x1, x0, [sp, #184]
  404ac8:	528001e1 	mov	w1, #0xf                   	// #15
  404acc:	52800040 	mov	w0, #0x2                   	// #2
  404ad0:	97ffff74 	bl	4048a0 <new_exp>
  404ad4:	f9403be3 	ldr	x3, [sp, #112]
  404ad8:	9106a2a1 	add	x1, x21, #0x1a8
  404adc:	cb38cc62 	sub	x2, x3, w24, sxtw #3
  404ae0:	cb38839c 	sub	x28, x28, w24, sxtb
  404ae4:	91002043 	add	x3, x2, #0x8
  404ae8:	38f76821 	ldrsb	w1, [x1, x23]
  404aec:	f9000440 	str	x0, [x2, #8]
  404af0:	51004020 	sub	w0, w1, #0x10
  404af4:	f94043e1 	ldr	x1, [sp, #128]
  404af8:	39c00382 	ldrsb	w2, [x28]
  404afc:	38e0c821 	ldrsb	w1, [x1, w0, sxtw]
  404b00:	0b020021 	add	w1, w1, w2
  404b04:	7100d83f 	cmp	w1, #0x36
  404b08:	540000a8 	b.hi	404b1c <__gettextparse+0x1b4>  // b.pmore
  404b0c:	910422a4 	add	x4, x21, #0x108
  404b10:	38e1c884 	ldrsb	w4, [x4, w1, sxtw]
  404b14:	6b02009f 	cmp	w4, w2
  404b18:	540014a0 	b.eq	404dac <__gettextparse+0x444>  // b.none
  404b1c:	f94047e1 	ldr	x1, [sp, #136]
  404b20:	38e0c821 	ldrsb	w1, [x1, w0, sxtw]
  404b24:	2a0103f7 	mov	w23, w1
  404b28:	d10006c0 	sub	x0, x22, #0x1
  404b2c:	39000781 	strb	w1, [x28, #1]
  404b30:	8b000340 	add	x0, x26, x0
  404b34:	9100079c 	add	x28, x28, #0x1
  404b38:	eb00039f 	cmp	x28, x0
  404b3c:	54000603 	b.cc	404bfc <__gettextparse+0x294>  // b.lo, b.ul, b.last
  404b40:	cb1a0380 	sub	x0, x28, x26
  404b44:	aa0003e1 	mov	x1, x0
  404b48:	f9003be1 	str	x1, [sp, #112]
  404b4c:	d284e1e0 	mov	x0, #0x270f                	// #9999
  404b50:	9100043c 	add	x28, x1, #0x1
  404b54:	eb0002df 	cmp	x22, x0
  404b58:	5400274c 	b.gt	405040 <__gettextparse+0x6d8>
  404b5c:	d37ffac7 	lsl	x7, x22, #1
  404b60:	d284e200 	mov	x0, #0x2710                	// #10000
  404b64:	eb0000ff 	cmp	x7, x0
  404b68:	9a80d0f6 	csel	x22, x7, x0, le
  404b6c:	8b160ec0 	add	x0, x22, x22, lsl #3
  404b70:	91001c00 	add	x0, x0, #0x7
  404b74:	94004dad 	bl	418228 <__libc_malloc>
  404b78:	aa0003f8 	mov	x24, x0
  404b7c:	b4002620 	cbz	x0, 405040 <__gettextparse+0x6d8>
  404b80:	aa1c03e2 	mov	x2, x28
  404b84:	aa1a03e1 	mov	x1, x26
  404b88:	97ffedca 	bl	4002b0 <.plt+0x10>
  404b8c:	91001eca 	add	x10, x22, #0x7
  404b90:	d37df382 	lsl	x2, x28, #3
  404b94:	927df14a 	and	x10, x10, #0xfffffffffffffff8
  404b98:	aa1903e1 	mov	x1, x25
  404b9c:	8b0a030a 	add	x10, x24, x10
  404ba0:	f9003fe2 	str	x2, [sp, #120]
  404ba4:	aa0a03e0 	mov	x0, x10
  404ba8:	97ffedc2 	bl	4002b0 <.plt+0x10>
  404bac:	aa0003ea 	mov	x10, x0
  404bb0:	eb14035f 	cmp	x26, x20
  404bb4:	f9403fe2 	ldr	x2, [sp, #120]
  404bb8:	540000e0 	b.eq	404bd4 <__gettextparse+0x26c>  // b.none
  404bbc:	aa1a03e0 	mov	x0, x26
  404bc0:	f9003fea 	str	x10, [sp, #120]
  404bc4:	f90053e2 	str	x2, [sp, #160]
  404bc8:	94004f0a 	bl	4187f0 <__free>
  404bcc:	f9403fea 	ldr	x10, [sp, #120]
  404bd0:	f94053e2 	ldr	x2, [sp, #160]
  404bd4:	d10006c0 	sub	x0, x22, #0x1
  404bd8:	f9403be1 	ldr	x1, [sp, #112]
  404bdc:	d1002042 	sub	x2, x2, #0x8
  404be0:	8b000300 	add	x0, x24, x0
  404be4:	8b020143 	add	x3, x10, x2
  404be8:	8b01031c 	add	x28, x24, x1
  404bec:	eb00039f 	cmp	x28, x0
  404bf0:	540022c2 	b.cs	405048 <__gettextparse+0x6e0>  // b.hs, b.nlast
  404bf4:	aa0a03f9 	mov	x25, x10
  404bf8:	aa1803fa 	mov	x26, x24
  404bfc:	710026ff 	cmp	w23, #0x9
  404c00:	54ffef81 	b.ne	4049f0 <__gettextparse+0x88>  // b.any
  404c04:	52800013 	mov	w19, #0x0                   	// #0
  404c08:	1400002c 	b	404cb8 <__gettextparse+0x350>
  404c0c:	9105e2a0 	add	x0, x21, #0x178
  404c10:	38e26802 	ldrsb	w2, [x0, x2]
  404c14:	35fff302 	cbnz	w2, 404a74 <__gettextparse+0x10c>
  404c18:	b9406fe0 	ldr	w0, [sp, #108]
  404c1c:	71000c1f 	cmp	w0, #0x3
  404c20:	54000081 	b.ne	404c30 <__gettextparse+0x2c8>  // b.any
  404c24:	7100027f 	cmp	w19, #0x0
  404c28:	54000bec 	b.gt	404da4 <__gettextparse+0x43c>
  404c2c:	54000440 	b.eq	404cb4 <__gettextparse+0x34c>  // b.none
  404c30:	910422a2 	add	x2, x21, #0x108
  404c34:	910502a9 	add	x9, x21, #0x140
  404c38:	14000006 	b	404c50 <__gettextparse+0x2e8>
  404c3c:	eb1a039f 	cmp	x28, x26
  404c40:	540003a0 	b.eq	404cb4 <__gettextparse+0x34c>  // b.none
  404c44:	38dfff81 	ldrsb	w1, [x28, #-1]!
  404c48:	d1002063 	sub	x3, x3, #0x8
  404c4c:	38e1cb61 	ldrsb	w1, [x27, w1, sxtw]
  404c50:	3100283f 	cmn	w1, #0xa
  404c54:	54ffff40 	b.eq	404c3c <__gettextparse+0x2d4>  // b.none
  404c58:	11000421 	add	w1, w1, #0x1
  404c5c:	7100d83f 	cmp	w1, #0x36
  404c60:	54fffee8 	b.hi	404c3c <__gettextparse+0x2d4>  // b.pmore
  404c64:	38e1c840 	ldrsb	w0, [x2, w1, sxtw]
  404c68:	7100041f 	cmp	w0, #0x1
  404c6c:	54fffe81 	b.ne	404c3c <__gettextparse+0x2d4>  // b.any
  404c70:	38e1c921 	ldrsb	w1, [x9, w1, sxtw]
  404c74:	7100003f 	cmp	w1, #0x0
  404c78:	2a0103f7 	mov	w23, w1
  404c7c:	54fffe0d 	b.le	404c3c <__gettextparse+0x2d4>
  404c80:	52800060 	mov	w0, #0x3                   	// #3
  404c84:	b9006fe0 	str	w0, [sp, #108]
  404c88:	f94057e0 	ldr	x0, [sp, #168]
  404c8c:	91002063 	add	x3, x3, #0x8
  404c90:	f9000060 	str	x0, [x3]
  404c94:	17ffffa5 	b	404b28 <__gettextparse+0x1c0>
  404c98:	7100085f 	cmp	w2, #0x2
  404c9c:	54fff1e1 	b.ne	404ad8 <__gettextparse+0x170>  // b.any
  404ca0:	f9400062 	ldr	x2, [x3]
  404ca4:	b4000082 	cbz	x2, 404cb4 <__gettextparse+0x34c>
  404ca8:	f9404be1 	ldr	x1, [sp, #144]
  404cac:	f9000422 	str	x2, [x1, #8]
  404cb0:	17ffff8a 	b	404ad8 <__gettextparse+0x170>
  404cb4:	52800033 	mov	w19, #0x1                   	// #1
  404cb8:	eb14035f 	cmp	x26, x20
  404cbc:	54000060 	b.eq	404cc8 <__gettextparse+0x360>  // b.none
  404cc0:	aa1a03e0 	mov	x0, x26
  404cc4:	94004ecb 	bl	4187f0 <__free>
  404cc8:	f9404fe0 	ldr	x0, [sp, #152]
  404ccc:	f943efe1 	ldr	x1, [sp, #2008]
  404cd0:	f9400002 	ldr	x2, [x0]
  404cd4:	eb020021 	subs	x1, x1, x2
  404cd8:	d2800002 	mov	x2, #0x0                   	// #0
  404cdc:	54001d41 	b.ne	405084 <__gettextparse+0x71c>  // b.any
  404ce0:	2a1303e0 	mov	w0, w19
  404ce4:	a9407bfd 	ldp	x29, x30, [sp]
  404ce8:	a94153f3 	ldp	x19, x20, [sp, #16]
  404cec:	a9425bf5 	ldp	x21, x22, [sp, #32]
  404cf0:	a94363f7 	ldp	x23, x24, [sp, #48]
  404cf4:	a9446bf9 	ldp	x25, x26, [sp, #64]
  404cf8:	a94573fb 	ldp	x27, x28, [sp, #80]
  404cfc:	911f83ff 	add	sp, sp, #0x7e0
  404d00:	d65f03c0 	ret
  404d04:	7100185f 	cmp	w2, #0x6
  404d08:	54000060 	b.eq	404d14 <__gettextparse+0x3ac>  // b.none
  404d0c:	71001c5f 	cmp	w2, #0x7
  404d10:	54ffee41 	b.ne	404ad8 <__gettextparse+0x170>  // b.any
  404d14:	f9400060 	ldr	x0, [x3]
  404d18:	9102e3e2 	add	x2, sp, #0xb8
  404d1c:	b85f8061 	ldur	w1, [x3, #-8]
  404d20:	f90063e0 	str	x0, [sp, #192]
  404d24:	f9003be3 	str	x3, [sp, #112]
  404d28:	f85f0060 	ldur	x0, [x3, #-16]
  404d2c:	f9005fe0 	str	x0, [sp, #184]
  404d30:	52800040 	mov	w0, #0x2                   	// #2
  404d34:	97fffedb 	bl	4048a0 <new_exp>
  404d38:	f9403be3 	ldr	x3, [sp, #112]
  404d3c:	17ffff67 	b	404ad8 <__gettextparse+0x170>
  404d40:	71002c5f 	cmp	w2, #0xb
  404d44:	54000a40 	b.eq	404e8c <__gettextparse+0x524>  // b.none
  404d48:	540000ed 	b.le	404d64 <__gettextparse+0x3fc>
  404d4c:	7100305f 	cmp	w2, #0xc
  404d50:	54000ac0 	b.eq	404ea8 <__gettextparse+0x540>  // b.none
  404d54:	7100345f 	cmp	w2, #0xd
  404d58:	54ffec01 	b.ne	404ad8 <__gettextparse+0x170>  // b.any
  404d5c:	f85f8060 	ldur	x0, [x3, #-8]
  404d60:	17ffff5e 	b	404ad8 <__gettextparse+0x170>
  404d64:	7100245f 	cmp	w2, #0x9
  404d68:	54fffd60 	b.eq	404d14 <__gettextparse+0x3ac>  // b.none
  404d6c:	7100285f 	cmp	w2, #0xa
  404d70:	54ffeb41 	b.ne	404ad8 <__gettextparse+0x170>  // b.any
  404d74:	f940006a 	ldr	x10, [x3]
  404d78:	2a0103e0 	mov	w0, w1
  404d7c:	9102e3e2 	add	x2, sp, #0xb8
  404d80:	52800041 	mov	w1, #0x2                   	// #2
  404d84:	f9003be3 	str	x3, [sp, #112]
  404d88:	f9005fea 	str	x10, [sp, #184]
  404d8c:	97fffec5 	bl	4048a0 <new_exp>
  404d90:	f9403be3 	ldr	x3, [sp, #112]
  404d94:	17ffff51 	b	404ad8 <__gettextparse+0x170>
  404d98:	52800000 	mov	w0, #0x0                   	// #0
  404d9c:	52800013 	mov	w19, #0x0                   	// #0
  404da0:	17ffff1f 	b	404a1c <__gettextparse+0xb4>
  404da4:	12800033 	mov	w19, #0xfffffffe            	// #-2
  404da8:	17ffffa2 	b	404c30 <__gettextparse+0x2c8>
  404dac:	910502a0 	add	x0, x21, #0x140
  404db0:	38e1c801 	ldrsb	w1, [x0, w1, sxtw]
  404db4:	2a0103f7 	mov	w23, w1
  404db8:	17ffff5c 	b	404b28 <__gettextparse+0x1c0>
  404dbc:	f9404be0 	ldr	x0, [sp, #144]
  404dc0:	f9400009 	ldr	x9, [x0]
  404dc4:	14000006 	b	404ddc <__gettextparse+0x474>
  404dc8:	7100801f 	cmp	w0, #0x20
  404dcc:	aa0903e4 	mov	x4, x9
  404dd0:	7a491804 	ccmp	w0, #0x9, #0x4, ne  // ne = any
  404dd4:	91000529 	add	x9, x9, #0x1
  404dd8:	54000101 	b.ne	404df8 <__gettextparse+0x490>  // b.any
  404ddc:	39400120 	ldrb	w0, [x9]
  404de0:	35ffff40 	cbnz	w0, 404dc8 <__gettextparse+0x460>
  404de4:	f9404be4 	ldr	x4, [sp, #144]
  404de8:	52800000 	mov	w0, #0x0                   	// #0
  404dec:	52800013 	mov	w19, #0x0                   	// #0
  404df0:	f9000089 	str	x9, [x4]
  404df4:	17ffff0a 	b	404a1c <__gettextparse+0xb4>
  404df8:	5100280b 	sub	w11, w0, #0xa
  404dfc:	2a0003f3 	mov	w19, w0
  404e00:	7101c97f 	cmp	w11, #0x72
  404e04:	540000c9 	b.ls	404e1c <__gettextparse+0x4b4>  // b.plast
  404e08:	f9404be4 	ldr	x4, [sp, #144]
  404e0c:	52800020 	mov	w0, #0x1                   	// #1
  404e10:	52802013 	mov	w19, #0x100                 	// #256
  404e14:	f9000089 	str	x9, [x4]
  404e18:	17ffff00 	b	404a18 <__gettextparse+0xb0>
  404e1c:	b000026c 	adrp	x12, 451000 <free_modules_db+0x18>
  404e20:	9131418c 	add	x12, x12, #0xc50
  404e24:	786b5985 	ldrh	w5, [x12, w11, uxtw #1]
  404e28:	10000066 	adr	x6, 404e34 <__gettextparse+0x4cc>
  404e2c:	8b25a8c5 	add	x5, x6, w5, sxth #2
  404e30:	d61f00a0 	br	x5
  404e34:	f85f0061 	ldur	x1, [x3, #-16]
  404e38:	9102e3e2 	add	x2, sp, #0xb8
  404e3c:	f9400060 	ldr	x0, [x3]
  404e40:	f9003be3 	str	x3, [sp, #112]
  404e44:	a90b83e1 	stp	x1, x0, [sp, #184]
  404e48:	528001c1 	mov	w1, #0xe                   	// #14
  404e4c:	52800040 	mov	w0, #0x2                   	// #2
  404e50:	97fffe94 	bl	4048a0 <new_exp>
  404e54:	f9403be3 	ldr	x3, [sp, #112]
  404e58:	17ffff20 	b	404ad8 <__gettextparse+0x170>
  404e5c:	2a0203e0 	mov	w0, w2
  404e60:	f9003be3 	str	x3, [sp, #112]
  404e64:	f85e0061 	ldur	x1, [x3, #-32]
  404e68:	f85f0062 	ldur	x2, [x3, #-16]
  404e6c:	a90b8be1 	stp	x1, x2, [sp, #184]
  404e70:	9102e3e2 	add	x2, sp, #0xb8
  404e74:	f9400061 	ldr	x1, [x3]
  404e78:	f90067e1 	str	x1, [sp, #200]
  404e7c:	52800201 	mov	w1, #0x10                  	// #16
  404e80:	97fffe88 	bl	4048a0 <new_exp>
  404e84:	f9403be3 	ldr	x3, [sp, #112]
  404e88:	17ffff14 	b	404ad8 <__gettextparse+0x170>
  404e8c:	d2800002 	mov	x2, #0x0                   	// #0
  404e90:	52800001 	mov	w1, #0x0                   	// #0
  404e94:	52800000 	mov	w0, #0x0                   	// #0
  404e98:	f9003be3 	str	x3, [sp, #112]
  404e9c:	97fffe81 	bl	4048a0 <new_exp>
  404ea0:	f9403be3 	ldr	x3, [sp, #112]
  404ea4:	17ffff0d 	b	404ad8 <__gettextparse+0x170>
  404ea8:	d2800002 	mov	x2, #0x0                   	// #0
  404eac:	52800000 	mov	w0, #0x0                   	// #0
  404eb0:	f9003be3 	str	x3, [sp, #112]
  404eb4:	97fffe7b 	bl	4048a0 <new_exp>
  404eb8:	f9403be3 	ldr	x3, [sp, #112]
  404ebc:	b4ffe0e0 	cbz	x0, 404ad8 <__gettextparse+0x170>
  404ec0:	f9400061 	ldr	x1, [x3]
  404ec4:	f9000401 	str	x1, [x0, #8]
  404ec8:	17ffff04 	b	404ad8 <__gettextparse+0x170>
  404ecc:	39400484 	ldrb	w4, [x4, #1]
  404ed0:	5100c005 	sub	w5, w0, #0x30
  404ed4:	5100c080 	sub	w0, w4, #0x30
  404ed8:	93407ca5 	sxtw	x5, w5
  404edc:	12001c04 	and	w4, w0, #0xff
  404ee0:	7100249f 	cmp	w4, #0x9
  404ee4:	54000128 	b.hi	404f08 <__gettextparse+0x5a0>  // b.pmore
  404ee8:	38401d24 	ldrb	w4, [x9, #1]!
  404eec:	93407c0a 	sxtw	x10, w0
  404ef0:	8b0508a5 	add	x5, x5, x5, lsl #2
  404ef4:	5100c080 	sub	w0, w4, #0x30
  404ef8:	12001c04 	and	w4, w0, #0xff
  404efc:	8b050545 	add	x5, x10, x5, lsl #1
  404f00:	7100249f 	cmp	w4, #0x9
  404f04:	54ffff29 	b.ls	404ee8 <__gettextparse+0x580>  // b.plast
  404f08:	f9404be4 	ldr	x4, [sp, #144]
  404f0c:	52800160 	mov	w0, #0xb                   	// #11
  404f10:	528020d3 	mov	w19, #0x106                 	// #262
  404f14:	f90057e5 	str	x5, [sp, #168]
  404f18:	f9000089 	str	x9, [x4]
  404f1c:	17fffebf 	b	404a18 <__gettextparse+0xb0>
  404f20:	38e0caa0 	ldrsb	w0, [x21, w0, sxtw]
  404f24:	f9404be4 	ldr	x4, [sp, #144]
  404f28:	f9000089 	str	x9, [x4]
  404f2c:	17fffebb 	b	404a18 <__gettextparse+0xb0>
  404f30:	3940048a 	ldrb	w10, [x4, #1]
  404f34:	6b00015f 	cmp	w10, w0
  404f38:	54fff681 	b.ne	404e08 <__gettextparse+0x4a0>  // b.any
  404f3c:	38e0caa0 	ldrsb	w0, [x21, w0, sxtw]
  404f40:	91000889 	add	x9, x4, #0x2
  404f44:	17fffff8 	b	404f24 <__gettextparse+0x5bc>
  404f48:	f9404be5 	ldr	x5, [sp, #144]
  404f4c:	52800000 	mov	w0, #0x0                   	// #0
  404f50:	52800013 	mov	w19, #0x0                   	// #0
  404f54:	f90000a4 	str	x4, [x5]
  404f58:	17fffeb1 	b	404a1c <__gettextparse+0xb4>
  404f5c:	d2800084 	mov	x4, #0x4                   	// #4
  404f60:	f94057e5 	ldr	x5, [sp, #168]
  404f64:	52800120 	mov	w0, #0x9                   	// #9
  404f68:	528020b3 	mov	w19, #0x105                 	// #261
  404f6c:	b3407c85 	bfxil	x5, x4, #0, #32
  404f70:	f90057e5 	str	x5, [sp, #168]
  404f74:	17ffffec 	b	404f24 <__gettextparse+0x5bc>
  404f78:	d28000e4 	mov	x4, #0x7                   	// #7
  404f7c:	f94057e5 	ldr	x5, [sp, #168]
  404f80:	52800100 	mov	w0, #0x8                   	// #8
  404f84:	52802093 	mov	w19, #0x104                 	// #260
  404f88:	b3407c85 	bfxil	x5, x4, #0, #32
  404f8c:	f90057e5 	str	x5, [sp, #168]
  404f90:	f9404be4 	ldr	x4, [sp, #144]
  404f94:	f9000089 	str	x9, [x4]
  404f98:	17fffea0 	b	404a18 <__gettextparse+0xb0>
  404f9c:	d28000c4 	mov	x4, #0x6                   	// #6
  404fa0:	17fffff7 	b	404f7c <__gettextparse+0x614>
  404fa4:	d2800064 	mov	x4, #0x3                   	// #3
  404fa8:	17ffffee 	b	404f60 <__gettextparse+0x5f8>
  404fac:	39400480 	ldrb	w0, [x4, #1]
  404fb0:	7100f41f 	cmp	w0, #0x3d
  404fb4:	54000640 	b.eq	40507c <__gettextparse+0x714>  // b.none
  404fb8:	d2800104 	mov	x4, #0x8                   	// #8
  404fbc:	f94057e5 	ldr	x5, [sp, #168]
  404fc0:	528000e0 	mov	w0, #0x7                   	// #7
  404fc4:	52802073 	mov	w19, #0x103                 	// #259
  404fc8:	b3407c85 	bfxil	x5, x4, #0, #32
  404fcc:	f90057e5 	str	x5, [sp, #168]
  404fd0:	17ffffd5 	b	404f24 <__gettextparse+0x5bc>
  404fd4:	39400480 	ldrb	w0, [x4, #1]
  404fd8:	7100f41f 	cmp	w0, #0x3d
  404fdc:	540003c0 	b.eq	405054 <__gettextparse+0x6ec>  // b.none
  404fe0:	d2800124 	mov	x4, #0x9                   	// #9
  404fe4:	17fffff6 	b	404fbc <__gettextparse+0x654>
  404fe8:	d28000a4 	mov	x4, #0x5                   	// #5
  404fec:	17ffffdd 	b	404f60 <__gettextparse+0x5f8>
  404ff0:	39400480 	ldrb	w0, [x4, #1]
  404ff4:	7100f41f 	cmp	w0, #0x3d
  404ff8:	54fff081 	b.ne	404e08 <__gettextparse+0x4a0>  // b.any
  404ffc:	d2800180 	mov	x0, #0xc                   	// #12
  405000:	f94057e5 	ldr	x5, [sp, #168]
  405004:	91000884 	add	x4, x4, #0x2
  405008:	52802053 	mov	w19, #0x102                 	// #258
  40500c:	b3407c05 	bfxil	x5, x0, #0, #32
  405010:	f90057e5 	str	x5, [sp, #168]
  405014:	f9404be5 	ldr	x5, [sp, #144]
  405018:	528000c0 	mov	w0, #0x6                   	// #6
  40501c:	f90000a4 	str	x4, [x5]
  405020:	17fffe7e 	b	404a18 <__gettextparse+0xb0>
  405024:	3940048a 	ldrb	w10, [x4, #1]
  405028:	52800140 	mov	w0, #0xa                   	// #10
  40502c:	52800433 	mov	w19, #0x21                  	// #33
  405030:	7100f55f 	cmp	w10, #0x3d
  405034:	54fff781 	b.ne	404f24 <__gettextparse+0x5bc>  // b.any
  405038:	d28001a0 	mov	x0, #0xd                   	// #13
  40503c:	17fffff1 	b	405000 <__gettextparse+0x698>
  405040:	52800053 	mov	w19, #0x2                   	// #2
  405044:	17ffff1d 	b	404cb8 <__gettextparse+0x350>
  405048:	aa1803fa 	mov	x26, x24
  40504c:	52800033 	mov	w19, #0x1                   	// #1
  405050:	17ffff1c 	b	404cc0 <__gettextparse+0x358>
  405054:	d2800160 	mov	x0, #0xb                   	// #11
  405058:	f94057e5 	ldr	x5, [sp, #168]
  40505c:	91000884 	add	x4, x4, #0x2
  405060:	52802073 	mov	w19, #0x103                 	// #259
  405064:	b3407c05 	bfxil	x5, x0, #0, #32
  405068:	f90057e5 	str	x5, [sp, #168]
  40506c:	f9404be5 	ldr	x5, [sp, #144]
  405070:	528000e0 	mov	w0, #0x7                   	// #7
  405074:	f90000a4 	str	x4, [x5]
  405078:	17fffe68 	b	404a18 <__gettextparse+0xb0>
  40507c:	d2800140 	mov	x0, #0xa                   	// #10
  405080:	17fffff6 	b	405058 <__gettextparse+0x6f0>
  405084:	94006d73 	bl	420650 <__stack_chk_fail>

0000000000405088 <__gettext_extract_plural>:
  405088:	a9ba7bfd 	stp	x29, x30, [sp, #-96]!
  40508c:	910003fd 	mov	x29, sp
  405090:	f9001bf7 	str	x23, [sp, #48]
  405094:	f0000417 	adrp	x23, 488000 <__FRAME_END__+0xff7c>
  405098:	9126c2f7 	add	x23, x23, #0x9b0
  40509c:	a90153f3 	stp	x19, x20, [sp, #16]
  4050a0:	f94002e3 	ldr	x3, [x23]
  4050a4:	f9002fe3 	str	x3, [sp, #88]
  4050a8:	d2800003 	mov	x3, #0x0                   	// #0
  4050ac:	a9025bf5 	stp	x21, x22, [sp, #32]
  4050b0:	aa0203f4 	mov	x20, x2
  4050b4:	aa0103f5 	mov	x21, x1
  4050b8:	b40005c0 	cbz	x0, 405170 <__gettext_extract_plural+0xe8>
  4050bc:	aa0003f3 	mov	x19, x0
  4050c0:	90000261 	adrp	x1, 451000 <free_modules_db+0x18>
  4050c4:	913c8021 	add	x1, x1, #0xf20
  4050c8:	940056b8 	bl	41aba8 <strstr>
  4050cc:	90000261 	adrp	x1, 451000 <free_modules_db+0x18>
  4050d0:	aa0003f6 	mov	x22, x0
  4050d4:	913ca021 	add	x1, x1, #0xf28
  4050d8:	aa1303e0 	mov	x0, x19
  4050dc:	940056b3 	bl	41aba8 <strstr>
  4050e0:	f10002df 	cmp	x22, #0x0
  4050e4:	fa401804 	ccmp	x0, #0x0, #0x4, ne  // ne = any
  4050e8:	54000440 	b.eq	405170 <__gettext_extract_plural+0xe8>  // b.none
  4050ec:	39402403 	ldrb	w3, [x0, #9]
  4050f0:	91002413 	add	x19, x0, #0x9
  4050f4:	340003e3 	cbz	w3, 405170 <__gettext_extract_plural+0xe8>
  4050f8:	f0000400 	adrp	x0, 488000 <__FRAME_END__+0xff7c>
  4050fc:	f947d400 	ldr	x0, [x0, #4008]
  405100:	d53bd041 	mrs	x1, tpidr_el0
  405104:	f8606821 	ldr	x1, [x1, x0]
  405108:	14000003 	b	405114 <__gettext_extract_plural+0x8c>
  40510c:	38401e63 	ldrb	w3, [x19, #1]!
  405110:	34000303 	cbz	w3, 405170 <__gettext_extract_plural+0xe8>
  405114:	d37f1c60 	ubfiz	x0, x3, #1, #8
  405118:	78606824 	ldrh	w4, [x1, x0]
  40511c:	376fff84 	tbnz	w4, #13, 40510c <__gettext_extract_plural+0x84>
  405120:	5100c063 	sub	w3, w3, #0x30
  405124:	12001c63 	and	w3, w3, #0xff
  405128:	7100247f 	cmp	w3, #0x9
  40512c:	54000228 	b.hi	405170 <__gettext_extract_plural+0xe8>  // b.pmore
  405130:	910103e1 	add	x1, sp, #0x40
  405134:	aa1303e0 	mov	x0, x19
  405138:	52800142 	mov	w2, #0xa                   	// #10
  40513c:	940003cf 	bl	406078 <__strtoul>
  405140:	f94023e1 	ldr	x1, [sp, #64]
  405144:	eb13003f 	cmp	x1, x19
  405148:	54000140 	b.eq	405170 <__gettext_extract_plural+0xe8>  // b.none
  40514c:	f9000280 	str	x0, [x20]
  405150:	91001ed6 	add	x22, x22, #0x7
  405154:	910123e0 	add	x0, sp, #0x48
  405158:	f90027f6 	str	x22, [sp, #72]
  40515c:	97fffe03 	bl	404968 <__gettextparse>
  405160:	35000080 	cbnz	w0, 405170 <__gettext_extract_plural+0xe8>
  405164:	f9402be0 	ldr	x0, [sp, #80]
  405168:	f90002a0 	str	x0, [x21]
  40516c:	14000006 	b	405184 <__gettext_extract_plural+0xfc>
  405170:	90000260 	adrp	x0, 451000 <free_modules_db+0x18>
  405174:	913ce000 	add	x0, x0, #0xf38
  405178:	f90002a0 	str	x0, [x21]
  40517c:	d2800040 	mov	x0, #0x2                   	// #2
  405180:	f9000280 	str	x0, [x20]
  405184:	f9402fe0 	ldr	x0, [sp, #88]
  405188:	f94002e1 	ldr	x1, [x23]
  40518c:	eb010000 	subs	x0, x0, x1
  405190:	d2800001 	mov	x1, #0x0                   	// #0
  405194:	540000c1 	b.ne	4051ac <__gettext_extract_plural+0x124>  // b.any
  405198:	a94153f3 	ldp	x19, x20, [sp, #16]
  40519c:	a9425bf5 	ldp	x21, x22, [sp, #32]
  4051a0:	f9401bf7 	ldr	x23, [sp, #48]
  4051a4:	a8c67bfd 	ldp	x29, x30, [sp], #96
  4051a8:	d65f03c0 	ret
  4051ac:	94006d29 	bl	420650 <__stack_chk_fail>

00000000004051b0 <__hash_string>:
  4051b0:	aa0003e2 	mov	x2, x0
  4051b4:	38401441 	ldrb	w1, [x2], #1
  4051b8:	92401c20 	and	x0, x1, #0xff
  4051bc:	350000e1 	cbnz	w1, 4051d8 <__hash_string+0x28>
  4051c0:	1400000b 	b	4051ec <__hash_string+0x3c>
  4051c4:	8b001060 	add	x0, x3, x0, lsl #4
  4051c8:	f2640c01 	ands	x1, x0, #0xf0000000
  4051cc:	9260ec03 	and	x3, x0, #0xffffffff0fffffff
  4051d0:	ca416061 	eor	x1, x3, x1, lsr #24
  4051d4:	9a810000 	csel	x0, x0, x1, eq  // eq = none
  4051d8:	39400041 	ldrb	w1, [x2]
  4051dc:	91000442 	add	x2, x2, #0x1
  4051e0:	92401c23 	and	x3, x1, #0xff
  4051e4:	35ffff01 	cbnz	w1, 4051c4 <__hash_string+0x14>
  4051e8:	d65f03c0 	ret
  4051ec:	d2800000 	mov	x0, #0x0                   	// #0
  4051f0:	d65f03c0 	ret
  4051f4:	d503201f 	nop
  4051f8:	d503201f 	nop
  4051fc:	d503201f 	nop

0000000000405200 <setjmp>:
  405200:	d2800021 	mov	x1, #0x1                   	// #1
  405204:	14000007 	b	405220 <__sigsetjmp>
  405208:	d503201f 	nop
  40520c:	d503201f 	nop

0000000000405210 <_setjmp>:
  405210:	d2800001 	mov	x1, #0x0                   	// #0
  405214:	14000003 	b	405220 <__sigsetjmp>
  405218:	d503201f 	nop
  40521c:	d503201f 	nop

0000000000405220 <__sigsetjmp>:
  405220:	a9005013 	stp	x19, x20, [x0]
  405224:	a9015815 	stp	x21, x22, [x0, #16]
  405228:	a9026017 	stp	x23, x24, [x0, #32]
  40522c:	a9036819 	stp	x25, x26, [x0, #48]
  405230:	a904701b 	stp	x27, x28, [x0, #64]
  405234:	f0000402 	adrp	x2, 488000 <__FRAME_END__+0xff7c>
  405238:	f944dc43 	ldr	x3, [x2, #2488]
  40523c:	ca0303c4 	eor	x4, x30, x3
  405240:	a905101d 	stp	x29, x4, [x0, #80]
  405244:	6d072408 	stp	d8, d9, [x0, #112]
  405248:	6d082c0a 	stp	d10, d11, [x0, #128]
  40524c:	6d09340c 	stp	d12, d13, [x0, #144]
  405250:	6d0a3c0e 	stp	d14, d15, [x0, #160]
  405254:	910003e4 	mov	x4, sp
  405258:	f0000402 	adrp	x2, 488000 <__FRAME_END__+0xff7c>
  40525c:	f944dc43 	ldr	x3, [x2, #2488]
  405260:	ca030085 	eor	x5, x4, x3
  405264:	f9003405 	str	x5, [x0, #104]
  405268:	14000002 	b	405270 <__sigjmp_save>
  40526c:	d503201f 	nop

0000000000405270 <__sigjmp_save>:
  405270:	a9be7bfd 	stp	x29, x30, [sp, #-32]!
  405274:	910003fd 	mov	x29, sp
  405278:	f9000bf3 	str	x19, [sp, #16]
  40527c:	aa0003f3 	mov	x19, x0
  405280:	350000c1 	cbnz	w1, 405298 <__sigjmp_save+0x28>
  405284:	b900b261 	str	w1, [x19, #176]
  405288:	52800000 	mov	w0, #0x0                   	// #0
  40528c:	f9400bf3 	ldr	x19, [sp, #16]
  405290:	a8c27bfd 	ldp	x29, x30, [sp], #32
  405294:	d65f03c0 	ret
  405298:	9102e002 	add	x2, x0, #0xb8
  40529c:	d2800001 	mov	x1, #0x0                   	// #0
  4052a0:	52800000 	mov	w0, #0x0                   	// #0
  4052a4:	94000051 	bl	4053e8 <__sigprocmask>
  4052a8:	7100001f 	cmp	w0, #0x0
  4052ac:	52800000 	mov	w0, #0x0                   	// #0
  4052b0:	1a9f17e1 	cset	w1, eq  // eq = none
  4052b4:	b900b261 	str	w1, [x19, #176]
  4052b8:	f9400bf3 	ldr	x19, [sp, #16]
  4052bc:	a8c27bfd 	ldp	x29, x30, [sp], #32
  4052c0:	d65f03c0 	ret
  4052c4:	d503201f 	nop

00000000004052c8 <raise>:
  4052c8:	90000263 	adrp	x3, 451000 <free_modules_db+0x18>
  4052cc:	913e6063 	add	x3, x3, #0xf98
  4052d0:	a9ad7bfd 	stp	x29, x30, [sp, #-304]!
  4052d4:	f0000405 	adrp	x5, 488000 <__FRAME_END__+0xff7c>
  4052d8:	9126c0a5 	add	x5, x5, #0x9b0
  4052dc:	910003fd 	mov	x29, sp
  4052e0:	a9401c66 	ldp	x6, x7, [x3]
  4052e4:	a90a9fe6 	stp	x6, x7, [sp, #168]
  4052e8:	2a0003e4 	mov	w4, w0
  4052ec:	a9412468 	ldp	x8, x9, [x3, #16]
  4052f0:	a90ba7e8 	stp	x8, x9, [sp, #184]
  4052f4:	b25ff7e6 	mov	x6, #0xfffffffe7fffffff    	// #-6442450945
  4052f8:	910803e9 	add	x9, sp, #0x200
  4052fc:	f94000a0 	ldr	x0, [x5]
  405300:	f90097e0 	str	x0, [sp, #296]
  405304:	d2800000 	mov	x0, #0x0                   	// #0
  405308:	f9000bf3 	str	x19, [sp, #16]
  40530c:	9100a3e2 	add	x2, sp, #0x28
  405310:	f90057e6 	str	x6, [sp, #168]
  405314:	9102a3e1 	add	x1, sp, #0xa8
  405318:	a9424c72 	ldp	x18, x19, [x3, #32]
  40531c:	d28010e8 	mov	x8, #0x87                  	// #135
  405320:	a9434470 	ldp	x16, x17, [x3, #48]
  405324:	a90ccff2 	stp	x18, x19, [sp, #200]
  405328:	a9443c6e 	ldp	x14, x15, [x3, #64]
  40532c:	a90dc7f0 	stp	x16, x17, [sp, #216]
  405330:	a945346c 	ldp	x12, x13, [x3, #80]
  405334:	a90ebfee 	stp	x14, x15, [sp, #232]
  405338:	a9462c6a 	ldp	x10, x11, [x3, #96]
  40533c:	a930ad2a 	stp	x10, x11, [x9, #-248]
  405340:	a9471c66 	ldp	x6, x7, [x3, #112]
  405344:	d2800103 	mov	x3, #0x8                   	// #8
  405348:	a9319d26 	stp	x6, x7, [x9, #-232]
  40534c:	a90fb7ec 	stp	x12, x13, [sp, #248]
  405350:	d4000001 	svc	#0x0
  405354:	d2801588 	mov	x8, #0xac                  	// #172
  405358:	d4000001 	svc	#0x0
  40535c:	d2801648 	mov	x8, #0xb2                  	// #178
  405360:	aa0003e3 	mov	x3, x0
  405364:	d4000001 	svc	#0x0
  405368:	aa0003e1 	mov	x1, x0
  40536c:	93407c82 	sxtw	x2, w4
  405370:	93407c60 	sxtw	x0, w3
  405374:	d2801068 	mov	x8, #0x83                  	// #131
  405378:	93407c21 	sxtw	x1, w1
  40537c:	d4000001 	svc	#0x0
  405380:	b140041f 	cmn	x0, #0x1, lsl #12
  405384:	54000228 	b.hi	4053c8 <raise+0x100>  // b.pmore
  405388:	2a0003e4 	mov	w4, w0
  40538c:	9100a3e1 	add	x1, sp, #0x28
  405390:	d2800040 	mov	x0, #0x2                   	// #2
  405394:	d2800002 	mov	x2, #0x0                   	// #0
  405398:	d2800103 	mov	x3, #0x8                   	// #8
  40539c:	d28010e8 	mov	x8, #0x87                  	// #135
  4053a0:	d4000001 	svc	#0x0
  4053a4:	f94097e0 	ldr	x0, [sp, #296]
  4053a8:	f94000a1 	ldr	x1, [x5]
  4053ac:	eb010000 	subs	x0, x0, x1
  4053b0:	d2800001 	mov	x1, #0x0                   	// #0
  4053b4:	54000181 	b.ne	4053e4 <raise+0x11c>  // b.any
  4053b8:	2a0403e0 	mov	w0, w4
  4053bc:	f9400bf3 	ldr	x19, [sp, #16]
  4053c0:	a8d37bfd 	ldp	x29, x30, [sp], #304
  4053c4:	d65f03c0 	ret
  4053c8:	f0000401 	adrp	x1, 488000 <__FRAME_END__+0xff7c>
  4053cc:	f947c821 	ldr	x1, [x1, #3984]
  4053d0:	d53bd042 	mrs	x2, tpidr_el0
  4053d4:	4b0003e0 	neg	w0, w0
  4053d8:	12800004 	mov	w4, #0xffffffff            	// #-1
  4053dc:	b8216840 	str	w0, [x2, x1]
  4053e0:	17ffffeb 	b	40538c <raise+0xc4>
  4053e4:	94006c9b 	bl	420650 <__stack_chk_fail>

00000000004053e8 <__sigprocmask>:
  4053e8:	a9b67bfd 	stp	x29, x30, [sp, #-160]!
  4053ec:	f0000404 	adrp	x4, 488000 <__FRAME_END__+0xff7c>
  4053f0:	9126c084 	add	x4, x4, #0x9b0
  4053f4:	910003fd 	mov	x29, sp
  4053f8:	f9400083 	ldr	x3, [x4]
  4053fc:	f9004fe3 	str	x3, [sp, #152]
  405400:	d2800003 	mov	x3, #0x0                   	// #0
  405404:	aa0103e3 	mov	x3, x1
  405408:	d2800001 	mov	x1, #0x0                   	// #0
  40540c:	b40000a3 	cbz	x3, 405420 <__sigprocmask+0x38>
  405410:	f9400065 	ldr	x5, [x3]
  405414:	f26104bf 	tst	x5, #0x180000000
  405418:	540001e1 	b.ne	405454 <__sigprocmask+0x6c>  // b.any
  40541c:	aa0303e1 	mov	x1, x3
  405420:	93407c00 	sxtw	x0, w0
  405424:	d2800103 	mov	x3, #0x8                   	// #8
  405428:	d28010e8 	mov	x8, #0x87                  	// #135
  40542c:	d4000001 	svc	#0x0
  405430:	b140041f 	cmn	x0, #0x1, lsl #12
  405434:	54000428 	b.hi	4054b8 <__sigprocmask+0xd0>  // b.pmore
  405438:	f9404fe1 	ldr	x1, [sp, #152]
  40543c:	f9400082 	ldr	x2, [x4]
  405440:	eb020021 	subs	x1, x1, x2
  405444:	d2800002 	mov	x2, #0x0                   	// #0
  405448:	54000461 	b.ne	4054d4 <__sigprocmask+0xec>  // b.any
  40544c:	a8ca7bfd 	ldp	x29, x30, [sp], #160
  405450:	d65f03c0 	ret
  405454:	a9422468 	ldp	x8, x9, [x3, #32]
  405458:	a903a7e8 	stp	x8, x9, [sp, #56]
  40545c:	925ff4a5 	and	x5, x5, #0xfffffffe7fffffff
  405460:	a9401c66 	ldp	x6, x7, [x3]
  405464:	a9019fe6 	stp	x6, x7, [sp, #24]
  405468:	910063e1 	add	x1, sp, #0x18
  40546c:	a9442468 	ldp	x8, x9, [x3, #64]
  405470:	a905a7e8 	stp	x8, x9, [sp, #88]
  405474:	93407c00 	sxtw	x0, w0
  405478:	a9411c66 	ldp	x6, x7, [x3, #16]
  40547c:	a9029fe6 	stp	x6, x7, [sp, #40]
  405480:	a9462468 	ldp	x8, x9, [x3, #96]
  405484:	f9000fe5 	str	x5, [sp, #24]
  405488:	a9431c66 	ldp	x6, x7, [x3, #48]
  40548c:	a9049fe6 	stp	x6, x7, [sp, #72]
  405490:	a9451c66 	ldp	x6, x7, [x3, #80]
  405494:	a9069fe6 	stp	x6, x7, [sp, #104]
  405498:	a9471c66 	ldp	x6, x7, [x3, #112]
  40549c:	d2800103 	mov	x3, #0x8                   	// #8
  4054a0:	a907a7e8 	stp	x8, x9, [sp, #120]
  4054a4:	d28010e8 	mov	x8, #0x87                  	// #135
  4054a8:	a9089fe6 	stp	x6, x7, [sp, #136]
  4054ac:	d4000001 	svc	#0x0
  4054b0:	b140041f 	cmn	x0, #0x1, lsl #12
  4054b4:	54fffc29 	b.ls	405438 <__sigprocmask+0x50>  // b.plast
  4054b8:	f0000401 	adrp	x1, 488000 <__FRAME_END__+0xff7c>
  4054bc:	f947c821 	ldr	x1, [x1, #3984]
  4054c0:	d53bd042 	mrs	x2, tpidr_el0
  4054c4:	4b0003e3 	neg	w3, w0
  4054c8:	12800000 	mov	w0, #0xffffffff            	// #-1
  4054cc:	b8216843 	str	w3, [x2, x1]
  4054d0:	17ffffda 	b	405438 <__sigprocmask+0x50>
  4054d4:	94006c5f 	bl	420650 <__stack_chk_fail>

00000000004054d8 <msort_with_tmp.part.0>:
  4054d8:	a9b87bfd 	stp	x29, x30, [sp, #-128]!
  4054dc:	910003fd 	mov	x29, sp
  4054e0:	a90573fb 	stp	x27, x28, [sp, #80]
  4054e4:	f940001b 	ldr	x27, [x0]
  4054e8:	a90153f3 	stp	x19, x20, [sp, #16]
  4054ec:	d341fc54 	lsr	x20, x2, #1
  4054f0:	a9025bf5 	stp	x21, x22, [sp, #32]
  4054f4:	f100069f 	cmp	x20, #0x1
  4054f8:	aa0003f5 	mov	x21, x0
  4054fc:	a90363f7 	stp	x23, x24, [sp, #48]
  405500:	9b1b069b 	madd	x27, x20, x27, x1
  405504:	cb140053 	sub	x19, x2, x20
  405508:	a9046bf9 	stp	x25, x26, [sp, #64]
  40550c:	aa0103fa 	mov	x26, x1
  405510:	f9003fe2 	str	x2, [sp, #120]
  405514:	54000060 	b.eq	405520 <msort_with_tmp.part.0+0x48>  // b.none
  405518:	aa1403e2 	mov	x2, x20
  40551c:	97ffffef 	bl	4054d8 <msort_with_tmp.part.0>
  405520:	f100067f 	cmp	x19, #0x1
  405524:	54000829 	b.ls	405628 <msort_with_tmp.part.0+0x150>  // b.plast
  405528:	aa1503e0 	mov	x0, x21
  40552c:	aa1303e2 	mov	x2, x19
  405530:	aa1b03e1 	mov	x1, x27
  405534:	97ffffe9 	bl	4054d8 <msort_with_tmp.part.0>
  405538:	a94002b6 	ldp	x22, x0, [x21]
  40553c:	a9415eb8 	ldp	x24, x23, [x21, #16]
  405540:	f94012bc 	ldr	x28, [x21, #32]
  405544:	f100081f 	cmp	x0, #0x2
  405548:	54000f40 	b.eq	405730 <msort_with_tmp.part.0+0x258>  // b.none
  40554c:	54000488 	b.hi	4055dc <msort_with_tmp.part.0+0x104>  // b.pmore
  405550:	b4000980 	cbz	x0, 405680 <msort_with_tmp.part.0+0x1a8>
  405554:	aa1a03f9 	mov	x25, x26
  405558:	14000007 	b	405574 <msort_with_tmp.part.0+0x9c>
  40555c:	f8408760 	ldr	x0, [x27], #8
  405560:	f8008780 	str	x0, [x28], #8
  405564:	d1000673 	sub	x19, x19, #0x1
  405568:	f100029f 	cmp	x20, #0x0
  40556c:	fa401a64 	ccmp	x19, #0x0, #0x4, ne  // ne = any
  405570:	540001c0 	b.eq	4055a8 <msort_with_tmp.part.0+0xd0>  // b.none
  405574:	aa1703e2 	mov	x2, x23
  405578:	aa1b03e1 	mov	x1, x27
  40557c:	aa1903e0 	mov	x0, x25
  405580:	d63f0300 	blr	x24
  405584:	7100001f 	cmp	w0, #0x0
  405588:	54fffeac 	b.gt	40555c <msort_with_tmp.part.0+0x84>
  40558c:	f8408720 	ldr	x0, [x25], #8
  405590:	d1000694 	sub	x20, x20, #0x1
  405594:	f8008780 	str	x0, [x28], #8
  405598:	f100029f 	cmp	x20, #0x0
  40559c:	fa401a64 	ccmp	x19, #0x0, #0x4, ne  // ne = any
  4055a0:	54fffea1 	b.ne	405574 <msort_with_tmp.part.0+0x9c>  // b.any
  4055a4:	d503201f 	nop
  4055a8:	b5000534 	cbnz	x20, 40564c <msort_with_tmp.part.0+0x174>
  4055ac:	f9403fe0 	ldr	x0, [sp, #120]
  4055b0:	f94012a1 	ldr	x1, [x21, #32]
  4055b4:	cb130002 	sub	x2, x0, x19
  4055b8:	aa1a03e0 	mov	x0, x26
  4055bc:	a94153f3 	ldp	x19, x20, [sp, #16]
  4055c0:	9b167c42 	mul	x2, x2, x22
  4055c4:	a9425bf5 	ldp	x21, x22, [sp, #32]
  4055c8:	a94363f7 	ldp	x23, x24, [sp, #48]
  4055cc:	a9446bf9 	ldp	x25, x26, [sp, #64]
  4055d0:	a94573fb 	ldp	x27, x28, [sp, #80]
  4055d4:	a8c87bfd 	ldp	x29, x30, [sp], #128
  4055d8:	17ffeb36 	b	4002b0 <.plt+0x10>
  4055dc:	f1000c1f 	cmp	x0, #0x3
  4055e0:	54000741 	b.ne	4056c8 <msort_with_tmp.part.0+0x1f0>  // b.any
  4055e4:	aa1a03f9 	mov	x25, x26
  4055e8:	14000007 	b	405604 <msort_with_tmp.part.0+0x12c>
  4055ec:	f8408760 	ldr	x0, [x27], #8
  4055f0:	d1000673 	sub	x19, x19, #0x1
  4055f4:	f8008780 	str	x0, [x28], #8
  4055f8:	f100029f 	cmp	x20, #0x0
  4055fc:	fa401a64 	ccmp	x19, #0x0, #0x4, ne  // ne = any
  405600:	54fffd40 	b.eq	4055a8 <msort_with_tmp.part.0+0xd0>  // b.none
  405604:	f9400320 	ldr	x0, [x25]
  405608:	aa1703e2 	mov	x2, x23
  40560c:	f9400361 	ldr	x1, [x27]
  405610:	d63f0300 	blr	x24
  405614:	7100001f 	cmp	w0, #0x0
  405618:	54fffeac 	b.gt	4055ec <msort_with_tmp.part.0+0x114>
  40561c:	d1000694 	sub	x20, x20, #0x1
  405620:	f8408720 	ldr	x0, [x25], #8
  405624:	17fffff4 	b	4055f4 <msort_with_tmp.part.0+0x11c>
  405628:	a94002b6 	ldp	x22, x0, [x21]
  40562c:	a9415eb8 	ldp	x24, x23, [x21, #16]
  405630:	f94012bc 	ldr	x28, [x21, #32]
  405634:	f100081f 	cmp	x0, #0x2
  405638:	540007a0 	b.eq	40572c <msort_with_tmp.part.0+0x254>  // b.none
  40563c:	54000128 	b.hi	405660 <msort_with_tmp.part.0+0x188>  // b.pmore
  405640:	b40001a0 	cbz	x0, 405674 <msort_with_tmp.part.0+0x19c>
  405644:	b5fff893 	cbnz	x19, 405554 <msort_with_tmp.part.0+0x7c>
  405648:	aa1a03f9 	mov	x25, x26
  40564c:	9b147ec2 	mul	x2, x22, x20
  405650:	aa1903e1 	mov	x1, x25
  405654:	aa1c03e0 	mov	x0, x28
  405658:	97ffeb16 	bl	4002b0 <.plt+0x10>
  40565c:	17ffffd4 	b	4055ac <msort_with_tmp.part.0+0xd4>
  405660:	f1000c1f 	cmp	x0, #0x3
  405664:	54000301 	b.ne	4056c4 <msort_with_tmp.part.0+0x1ec>  // b.any
  405668:	b4ffff13 	cbz	x19, 405648 <msort_with_tmp.part.0+0x170>
  40566c:	d2800033 	mov	x19, #0x1                   	// #1
  405670:	17ffffdd 	b	4055e4 <msort_with_tmp.part.0+0x10c>
  405674:	b4fffeb3 	cbz	x19, 405648 <msort_with_tmp.part.0+0x170>
  405678:	d2800033 	mov	x19, #0x1                   	// #1
  40567c:	d503201f 	nop
  405680:	aa1a03f9 	mov	x25, x26
  405684:	14000007 	b	4056a0 <msort_with_tmp.part.0+0x1c8>
  405688:	b8404760 	ldr	w0, [x27], #4
  40568c:	d1000673 	sub	x19, x19, #0x1
  405690:	b8004780 	str	w0, [x28], #4
  405694:	f100029f 	cmp	x20, #0x0
  405698:	fa401a64 	ccmp	x19, #0x0, #0x4, ne  // ne = any
  40569c:	54fff860 	b.eq	4055a8 <msort_with_tmp.part.0+0xd0>  // b.none
  4056a0:	aa1703e2 	mov	x2, x23
  4056a4:	aa1b03e1 	mov	x1, x27
  4056a8:	aa1903e0 	mov	x0, x25
  4056ac:	d63f0300 	blr	x24
  4056b0:	7100001f 	cmp	w0, #0x0
  4056b4:	54fffeac 	b.gt	405688 <msort_with_tmp.part.0+0x1b0>
  4056b8:	b8404720 	ldr	w0, [x25], #4
  4056bc:	d1000694 	sub	x20, x20, #0x1
  4056c0:	17fffff4 	b	405690 <msort_with_tmp.part.0+0x1b8>
  4056c4:	b4fffc33 	cbz	x19, 405648 <msort_with_tmp.part.0+0x170>
  4056c8:	aa1a03f9 	mov	x25, x26
  4056cc:	14000008 	b	4056ec <msort_with_tmp.part.0+0x214>
  4056d0:	940056c4 	bl	41b1e0 <__mempcpy>
  4056d4:	8b16037b 	add	x27, x27, x22
  4056d8:	d1000673 	sub	x19, x19, #0x1
  4056dc:	aa0003fc 	mov	x28, x0
  4056e0:	f100029f 	cmp	x20, #0x0
  4056e4:	fa401a64 	ccmp	x19, #0x0, #0x4, ne  // ne = any
  4056e8:	54fff600 	b.eq	4055a8 <msort_with_tmp.part.0+0xd0>  // b.none
  4056ec:	aa1703e2 	mov	x2, x23
  4056f0:	aa1b03e1 	mov	x1, x27
  4056f4:	aa1903e0 	mov	x0, x25
  4056f8:	d63f0300 	blr	x24
  4056fc:	2a0003e3 	mov	w3, w0
  405700:	aa1b03e1 	mov	x1, x27
  405704:	aa1c03e0 	mov	x0, x28
  405708:	aa1603e2 	mov	x2, x22
  40570c:	7100007f 	cmp	w3, #0x0
  405710:	54fffe0c 	b.gt	4056d0 <msort_with_tmp.part.0+0x1f8>
  405714:	aa1903e1 	mov	x1, x25
  405718:	d1000694 	sub	x20, x20, #0x1
  40571c:	940056b1 	bl	41b1e0 <__mempcpy>
  405720:	8b160339 	add	x25, x25, x22
  405724:	aa0003fc 	mov	x28, x0
  405728:	17ffffee 	b	4056e0 <msort_with_tmp.part.0+0x208>
  40572c:	b4fff8f3 	cbz	x19, 405648 <msort_with_tmp.part.0+0x170>
  405730:	d10006c7 	sub	x7, x22, #0x1
  405734:	aa1c03e8 	mov	x8, x28
  405738:	aa1a03f9 	mov	x25, x26
  40573c:	d343fce7 	lsr	x7, x7, #3
  405740:	a90623e8 	stp	x8, x8, [sp, #96]
  405744:	aa1703e2 	mov	x2, x23
  405748:	aa1b03e1 	mov	x1, x27
  40574c:	f9003be7 	str	x7, [sp, #112]
  405750:	aa1903e0 	mov	x0, x25
  405754:	d63f0300 	blr	x24
  405758:	7100001f 	cmp	w0, #0x0
  40575c:	a94623e6 	ldp	x6, x8, [sp, #96]
  405760:	f9403be7 	ldr	x7, [sp, #112]
  405764:	8b160108 	add	x8, x8, x22
  405768:	aa0803fc 	mov	x28, x8
  40576c:	5400020d 	b.le	4057ac <msort_with_tmp.part.0+0x2d4>
  405770:	aa1b03e0 	mov	x0, x27
  405774:	d1000673 	sub	x19, x19, #0x1
  405778:	8b16037b 	add	x27, x27, x22
  40577c:	eb06011f 	cmp	x8, x6
  405780:	d2800003 	mov	x3, #0x0                   	// #0
  405784:	540000c9 	b.ls	40579c <msort_with_tmp.part.0+0x2c4>  // b.plast
  405788:	f8637801 	ldr	x1, [x0, x3, lsl #3]
  40578c:	f82378c1 	str	x1, [x6, x3, lsl #3]
  405790:	eb0300ff 	cmp	x7, x3
  405794:	91000463 	add	x3, x3, #0x1
  405798:	54ffff81 	b.ne	405788 <msort_with_tmp.part.0+0x2b0>  // b.any
  40579c:	f100029f 	cmp	x20, #0x0
  4057a0:	fa401a64 	ccmp	x19, #0x0, #0x4, ne  // ne = any
  4057a4:	54fffce1 	b.ne	405740 <msort_with_tmp.part.0+0x268>  // b.any
  4057a8:	17ffff80 	b	4055a8 <msort_with_tmp.part.0+0xd0>
  4057ac:	aa1903e0 	mov	x0, x25
  4057b0:	d1000694 	sub	x20, x20, #0x1
  4057b4:	8b160339 	add	x25, x25, x22
  4057b8:	17fffff1 	b	40577c <msort_with_tmp.part.0+0x2a4>
  4057bc:	d503201f 	nop

00000000004057c0 <__qsort_r>:
  4057c0:	a9b67bfd 	stp	x29, x30, [sp, #-160]!
  4057c4:	f100805f 	cmp	x2, #0x20
  4057c8:	910003fd 	mov	x29, sp
  4057cc:	a90363f7 	stp	x23, x24, [sp, #48]
  4057d0:	aa0103f7 	mov	x23, x1
  4057d4:	a9046bf9 	stp	x25, x26, [sp, #64]
  4057d8:	f0000419 	adrp	x25, 488000 <__FRAME_END__+0xff7c>
  4057dc:	9126c339 	add	x25, x25, #0x9b0
  4057e0:	f9400321 	ldr	x1, [x25]
  4057e4:	f9004fa1 	str	x1, [x29, #152]
  4057e8:	d2800001 	mov	x1, #0x0                   	// #0
  4057ec:	a90153f3 	stp	x19, x20, [sp, #16]
  4057f0:	9b027ee1 	mul	x1, x23, x2
  4057f4:	8b171053 	add	x19, x2, x23, lsl #4
  4057f8:	a9025bf5 	stp	x21, x22, [sp, #32]
  4057fc:	9a818273 	csel	x19, x19, x1, hi  // hi = pmore
  405800:	a90573fb 	stp	x27, x28, [sp, #80]
  405804:	aa0003f6 	mov	x22, x0
  405808:	d10043ff 	sub	sp, sp, #0x10
  40580c:	aa0203fb 	mov	x27, x2
  405810:	aa0303f5 	mov	x21, x3
  405814:	aa0403f4 	mov	x20, x4
  405818:	f10ffe7f 	cmp	x19, #0x3ff
  40581c:	54000628 	b.hi	4058e0 <__qsort_r+0x120>  // b.pmore
  405820:	91003e73 	add	x19, x19, #0xf
  405824:	9270be60 	and	x0, x19, #0xffffffffffff0000
  405828:	927cee73 	and	x19, x19, #0xfffffffffffffff0
  40582c:	cb2063e0 	sub	x0, sp, x0
  405830:	eb2063ff 	cmp	sp, x0
  405834:	540000a0 	b.eq	405848 <__qsort_r+0x88>  // b.none
  405838:	d14043ff 	sub	sp, sp, #0x10, lsl #12
  40583c:	eb2063ff 	cmp	sp, x0
  405840:	f90203ff 	str	xzr, [sp, #1024]
  405844:	54ffffa1 	b.ne	405838 <__qsort_r+0x78>  // b.any
  405848:	92403e73 	and	x19, x19, #0xffff
  40584c:	cb3363ff 	sub	sp, sp, x19
  405850:	f110027f 	cmp	x19, #0x400
  405854:	f90003ff 	str	xzr, [sp]
  405858:	54000043 	b.cc	405860 <__qsort_r+0xa0>  // b.lo, b.ul, b.last
  40585c:	f90203ff 	str	xzr, [sp, #1024]
  405860:	910043e0 	add	x0, sp, #0x10
  405864:	f90037bf 	str	xzr, [x29, #104]
  405868:	a90853b5 	stp	x21, x20, [x29, #128]
  40586c:	f100837f 	cmp	x27, #0x20
  405870:	f9004ba0 	str	x0, [x29, #144]
  405874:	d2800080 	mov	x0, #0x4                   	// #4
  405878:	a90703bb 	stp	x27, x0, [x29, #112]
  40587c:	54000648 	b.hi	405944 <__qsort_r+0x184>  // b.pmore
  405880:	aa1b02c0 	orr	x0, x22, x27
  405884:	f240041f 	tst	x0, #0x3
  405888:	54001040 	b.eq	405a90 <__qsort_r+0x2d0>  // b.none
  40588c:	f10006ff 	cmp	x23, #0x1
  405890:	540000a9 	b.ls	4058a4 <__qsort_r+0xe4>  // b.plast
  405894:	aa1703e2 	mov	x2, x23
  405898:	aa1603e1 	mov	x1, x22
  40589c:	9101c3a0 	add	x0, x29, #0x70
  4058a0:	97ffff0e 	bl	4054d8 <msort_with_tmp.part.0>
  4058a4:	f94037a0 	ldr	x0, [x29, #104]
  4058a8:	94004bd2 	bl	4187f0 <__free>
  4058ac:	f9404fa0 	ldr	x0, [x29, #152]
  4058b0:	f9400321 	ldr	x1, [x25]
  4058b4:	eb010000 	subs	x0, x0, x1
  4058b8:	d2800001 	mov	x1, #0x0                   	// #0
  4058bc:	540010a1 	b.ne	405ad0 <__qsort_r+0x310>  // b.any
  4058c0:	910003bf 	mov	sp, x29
  4058c4:	a94153f3 	ldp	x19, x20, [sp, #16]
  4058c8:	a9425bf5 	ldp	x21, x22, [sp, #32]
  4058cc:	a94363f7 	ldp	x23, x24, [sp, #48]
  4058d0:	a9446bf9 	ldp	x25, x26, [sp, #64]
  4058d4:	a94573fb 	ldp	x27, x28, [sp, #80]
  4058d8:	a8ca7bfd 	ldp	x29, x30, [sp], #160
  4058dc:	d65f03c0 	ret
  4058e0:	b0000438 	adrp	x24, 48a000 <_dl_main_map+0xc0>
  4058e4:	913c631a 	add	x26, x24, #0xf18
  4058e8:	b94f1b00 	ldr	w0, [x24, #3864]
  4058ec:	34000b20 	cbz	w0, 405a50 <__qsort_r+0x290>
  4058f0:	93407c00 	sxtw	x0, w0
  4058f4:	f9400741 	ldr	x1, [x26, #8]
  4058f8:	9ac00a60 	udiv	x0, x19, x0
  4058fc:	eb01001f 	cmp	x0, x1
  405900:	540009a8 	b.hi	405a34 <__qsort_r+0x274>  // b.pmore
  405904:	f0000401 	adrp	x1, 488000 <__FRAME_END__+0xff7c>
  405908:	f947c821 	ldr	x1, [x1, #3984]
  40590c:	d53bd058 	mrs	x24, tpidr_el0
  405910:	aa1303e0 	mov	x0, x19
  405914:	aa0103f3 	mov	x19, x1
  405918:	b8616b1a 	ldr	w26, [x24, x1]
  40591c:	94004a43 	bl	418228 <__libc_malloc>
  405920:	b8336b1a 	str	w26, [x24, x19]
  405924:	f90037a0 	str	x0, [x29, #104]
  405928:	b4000860 	cbz	x0, 405a34 <__qsort_r+0x274>
  40592c:	a90853b5 	stp	x21, x20, [x29, #128]
  405930:	f100837f 	cmp	x27, #0x20
  405934:	f9004ba0 	str	x0, [x29, #144]
  405938:	d2800080 	mov	x0, #0x4                   	// #4
  40593c:	a90703bb 	stp	x27, x0, [x29, #112]
  405940:	54fffa09 	b.ls	405880 <__qsort_r+0xc0>  // b.plast
  405944:	f9404bbc 	ldr	x28, [x29, #144]
  405948:	d37df2e2 	lsl	x2, x23, #3
  40594c:	8b02039c 	add	x28, x28, x2
  405950:	8b020398 	add	x24, x28, x2
  405954:	aa1c03e1 	mov	x1, x28
  405958:	eb18039f 	cmp	x28, x24
  40595c:	54000122 	b.cs	405980 <__qsort_r+0x1c0>  // b.hs, b.nlast
  405960:	aa1603e0 	mov	x0, x22
  405964:	d503201f 	nop
  405968:	f8008420 	str	x0, [x1], #8
  40596c:	8b1b0000 	add	x0, x0, x27
  405970:	eb01031f 	cmp	x24, x1
  405974:	54ffffa8 	b.hi	405968 <__qsort_r+0x1a8>  // b.pmore
  405978:	f9404ba1 	ldr	x1, [x29, #144]
  40597c:	8b020021 	add	x1, x1, x2
  405980:	d2800102 	mov	x2, #0x8                   	// #8
  405984:	d2800060 	mov	x0, #0x3                   	// #3
  405988:	a90703a2 	stp	x2, x0, [x29, #112]
  40598c:	f10006ff 	cmp	x23, #0x1
  405990:	540004e9 	b.ls	405a2c <__qsort_r+0x26c>  // b.plast
  405994:	aa1703e2 	mov	x2, x23
  405998:	9101c3a0 	add	x0, x29, #0x70
  40599c:	97fffecf 	bl	4054d8 <msort_with_tmp.part.0>
  4059a0:	aa1603fa 	mov	x26, x22
  4059a4:	d2800015 	mov	x21, #0x0                   	// #0
  4059a8:	14000005 	b	4059bc <__qsort_r+0x1fc>
  4059ac:	910006b5 	add	x21, x21, #0x1
  4059b0:	8b1b035a 	add	x26, x26, x27
  4059b4:	eb1502ff 	cmp	x23, x21
  4059b8:	54fff769 	b.ls	4058a4 <__qsort_r+0xe4>  // b.plast
  4059bc:	f8757b93 	ldr	x19, [x28, x21, lsl #3]
  4059c0:	eb1a027f 	cmp	x19, x26
  4059c4:	54ffff40 	b.eq	4059ac <__qsort_r+0x1ec>  // b.none
  4059c8:	aa1b03e2 	mov	x2, x27
  4059cc:	aa1a03e1 	mov	x1, x26
  4059d0:	aa1803e0 	mov	x0, x24
  4059d4:	97ffea37 	bl	4002b0 <.plt+0x10>
  4059d8:	aa1503f4 	mov	x20, x21
  4059dc:	aa1a03e0 	mov	x0, x26
  4059e0:	14000002 	b	4059e8 <__qsort_r+0x228>
  4059e4:	aa0103f3 	mov	x19, x1
  4059e8:	cb160263 	sub	x3, x19, x22
  4059ec:	aa1403e5 	mov	x5, x20
  4059f0:	aa1b03e2 	mov	x2, x27
  4059f4:	aa1303e1 	mov	x1, x19
  4059f8:	9adb0874 	udiv	x20, x3, x27
  4059fc:	f8257b80 	str	x0, [x28, x5, lsl #3]
  405a00:	97ffea2c 	bl	4002b0 <.plt+0x10>
  405a04:	aa1303e0 	mov	x0, x19
  405a08:	f8747b81 	ldr	x1, [x28, x20, lsl #3]
  405a0c:	8b140f82 	add	x2, x28, x20, lsl #3
  405a10:	eb1a003f 	cmp	x1, x26
  405a14:	54fffe81 	b.ne	4059e4 <__qsort_r+0x224>  // b.any
  405a18:	f9000053 	str	x19, [x2]
  405a1c:	aa1803e1 	mov	x1, x24
  405a20:	aa1b03e2 	mov	x2, x27
  405a24:	97ffea23 	bl	4002b0 <.plt+0x10>
  405a28:	17ffffe1 	b	4059ac <__qsort_r+0x1ec>
  405a2c:	b5fffbb7 	cbnz	x23, 4059a0 <__qsort_r+0x1e0>
  405a30:	17ffff9d 	b	4058a4 <__qsort_r+0xe4>
  405a34:	aa1403e4 	mov	x4, x20
  405a38:	aa1503e3 	mov	x3, x21
  405a3c:	aa1b03e2 	mov	x2, x27
  405a40:	aa1703e1 	mov	x1, x23
  405a44:	aa1603e0 	mov	x0, x22
  405a48:	94009d60 	bl	42cfc8 <_quicksort>
  405a4c:	17ffff98 	b	4058ac <__qsort_r+0xec>
  405a50:	52800aa0 	mov	w0, #0x55                  	// #85
  405a54:	940060ad 	bl	41dd08 <__sysconf>
  405a58:	92fc0001 	mov	x1, #0x1fffffffffffffff    	// #2305843009213693951
  405a5c:	b100041f 	cmn	x0, #0x1
  405a60:	540000a0 	b.eq	405a74 <__qsort_r+0x2b4>  // b.none
  405a64:	91000c01 	add	x1, x0, #0x3
  405a68:	f100001f 	cmp	x0, #0x0
  405a6c:	9a80b020 	csel	x0, x1, x0, lt  // lt = tstop
  405a70:	9342fc01 	asr	x1, x0, #2
  405a74:	913c631a 	add	x26, x24, #0xf18
  405a78:	f9000741 	str	x1, [x26, #8]
  405a7c:	d5033bbf 	dmb	ish
  405a80:	528003c0 	mov	w0, #0x1e                  	// #30
  405a84:	940060a1 	bl	41dd08 <__sysconf>
  405a88:	b90f1b00 	str	w0, [x24, #3864]
  405a8c:	17ffff99 	b	4058f0 <__qsort_r+0x130>
  405a90:	f100137f 	cmp	x27, #0x4
  405a94:	540001a0 	b.eq	405ac8 <__qsort_r+0x308>  // b.none
  405a98:	f100237f 	cmp	x27, #0x8
  405a9c:	540000c0 	b.eq	405ab4 <__qsort_r+0x2f4>  // b.none
  405aa0:	f240081f 	tst	x0, #0x7
  405aa4:	54ffef41 	b.ne	40588c <__qsort_r+0xcc>  // b.any
  405aa8:	d2800040 	mov	x0, #0x2                   	// #2
  405aac:	f9003fa0 	str	x0, [x29, #120]
  405ab0:	17ffff77 	b	40588c <__qsort_r+0xcc>
  405ab4:	f2400adf 	tst	x22, #0x7
  405ab8:	54ffff41 	b.ne	405aa0 <__qsort_r+0x2e0>  // b.any
  405abc:	d2800020 	mov	x0, #0x1                   	// #1
  405ac0:	f9003fa0 	str	x0, [x29, #120]
  405ac4:	17ffff72 	b	40588c <__qsort_r+0xcc>
  405ac8:	f9003fbf 	str	xzr, [x29, #120]
  405acc:	17ffff70 	b	40588c <__qsort_r+0xcc>
  405ad0:	94006ae0 	bl	420650 <__stack_chk_fail>
  405ad4:	d503201f 	nop

0000000000405ad8 <qsort>:
